	.file	"flop.cpp"
# GNU C++11 (Ubuntu 7.4.0-1ubuntu1~18.04.1) version 7.4.0 (x86_64-linux-gnu)
#	compiled by GNU C version 7.4.0, GMP version 6.1.2, MPFR version 4.0.1, MPC version 1.1.0, isl version isl-0.19-GMP

# GGC heuristics: --param ggc-min-expand=100 --param ggc-min-heapsize=131072
# options passed:  -imultiarch x86_64-linux-gnu -D_GNU_SOURCE -D_REENTRANT
# flop.cpp --param l1-cache-size=32 --param l1-cache-line-size=64
# --param l2-cache-size=8192 -mtune=generic -march=haswell -g -std=c++11
# -fopenmp -fverbose-asm -fstack-protector-strong -Wformat
# -Wformat-security
# options enabled:  -fPIC -fPIE -faggressive-loop-optimizations
# -fasynchronous-unwind-tables -fauto-inc-dec -fchkp-check-incomplete-type
# -fchkp-check-read -fchkp-check-write -fchkp-instrument-calls
# -fchkp-narrow-bounds -fchkp-optimize -fchkp-store-bounds
# -fchkp-use-static-bounds -fchkp-use-static-const-bounds
# -fchkp-use-wrappers -fcommon -fdelete-null-pointer-checks
# -fdwarf2-cfi-asm -fearly-inlining -feliminate-unused-debug-types
# -fexceptions -ffp-int-builtin-inexact -ffunction-cse -fgcse-lm
# -fgnu-runtime -fgnu-unique -fident -finline-atomics -fira-hoist-pressure
# -fira-share-save-slots -fira-share-spill-slots -fivopts
# -fkeep-static-consts -fleading-underscore -flifetime-dse
# -flto-odr-type-merging -fmath-errno -fmerge-debug-strings -fpeephole
# -fplt -fprefetch-loop-arrays -freg-struct-return
# -fsched-critical-path-heuristic -fsched-dep-count-heuristic
# -fsched-group-heuristic -fsched-interblock -fsched-last-insn-heuristic
# -fsched-rank-heuristic -fsched-spec -fsched-spec-insn-heuristic
# -fsched-stalled-insns-dep -fschedule-fusion -fsemantic-interposition
# -fshow-column -fshrink-wrap-separate -fsigned-zeros
# -fsplit-ivs-in-unroller -fssa-backprop -fstack-protector-strong
# -fstdarg-opt -fstrict-volatile-bitfields -fsync-libcalls -ftrapping-math
# -ftree-cselim -ftree-forwprop -ftree-loop-if-convert -ftree-loop-im
# -ftree-loop-ivcanon -ftree-loop-optimize -ftree-parallelize-loops=
# -ftree-phiprop -ftree-reassoc -ftree-scev-cprop -funit-at-a-time
# -funwind-tables -fverbose-asm -fzero-initialized-in-bss
# -m128bit-long-double -m64 -m80387 -maes -malign-stringops -mavx -mavx2
# -mavx256-split-unaligned-load -mavx256-split-unaligned-store -mbmi -mbmi2
# -mcx16 -mf16c -mfancy-math-387 -mfma -mfp-ret-in-387 -mfsgsbase -mfxsr
# -mglibc -mhle -mieee-fp -mlong-double-80 -mlzcnt -mmmx -mmovbe -mpclmul
# -mpopcnt -mpush-args -mrdrnd -mred-zone -msahf -msse -msse2 -msse3 -msse4
# -msse4.1 -msse4.2 -mssse3 -mstv -mtls-direct-seg-refs -mvzeroupper
# -mxsave -mxsaveopt

	.text
.Ltext0:
	.section	.rodata
	.type	_ZStL19piecewise_construct, @object
	.size	_ZStL19piecewise_construct, 1
_ZStL19piecewise_construct:
	.zero	1
	.local	_ZStL8__ioinit
	.comm	_ZStL8__ioinit,1,1
	.section	.text._ZNSt6chrono8durationIlSt5ratioILl1ELl1000000000EEEC1IlvEERKT_,"axG",@progbits,_ZNSt6chrono8durationIlSt5ratioILl1ELl1000000000EEEC1IlvEERKT_,comdat
	.align 2
	.weak	_ZNSt6chrono8durationIlSt5ratioILl1ELl1000000000EEEC1IlvEERKT_
	.type	_ZNSt6chrono8durationIlSt5ratioILl1ELl1000000000EEEC1IlvEERKT_, @function
_ZNSt6chrono8durationIlSt5ratioILl1ELl1000000000EEEC1IlvEERKT_:
.LFB5343:
	.file 1 "/usr/include/c++/7/chrono"
	.loc 1 327 0
	.cfi_startproc
	pushq	%rbp	#
	.cfi_def_cfa_offset 16
	.cfi_offset 6, -16
	movq	%rsp, %rbp	#,
	.cfi_def_cfa_register 6
	movq	%rdi, -8(%rbp)	# this, this
	movq	%rsi, -16(%rbp)	# __rep, __rep
.LBB56:
# /usr/include/c++/7/chrono:328: 	  : __r(static_cast<rep>(__rep)) { }
	.loc 1 328 0
	movq	-16(%rbp), %rax	# __rep, tmp88
	movq	(%rax), %rdx	# *__rep_5(D), _1
	movq	-8(%rbp), %rax	# this, tmp89
	movq	%rdx, (%rax)	# _1, this_3(D)->__r
.LBE56:
	nop
	popq	%rbp	#
	.cfi_def_cfa 7, 8
	ret
	.cfi_endproc
.LFE5343:
	.size	_ZNSt6chrono8durationIlSt5ratioILl1ELl1000000000EEEC1IlvEERKT_, .-_ZNSt6chrono8durationIlSt5ratioILl1ELl1000000000EEEC1IlvEERKT_
	.section	.text._ZNKSt6chrono8durationIlSt5ratioILl1ELl1000000000EEE5countEv,"axG",@progbits,_ZNKSt6chrono8durationIlSt5ratioILl1ELl1000000000EEE5countEv,comdat
	.align 2
	.weak	_ZNKSt6chrono8durationIlSt5ratioILl1ELl1000000000EEE5countEv
	.type	_ZNKSt6chrono8durationIlSt5ratioILl1ELl1000000000EEE5countEv, @function
_ZNKSt6chrono8durationIlSt5ratioILl1ELl1000000000EEE5countEv:
.LFB5347:
	.loc 1 342 0
	.cfi_startproc
	pushq	%rbp	#
	.cfi_def_cfa_offset 16
	.cfi_offset 6, -16
	movq	%rsp, %rbp	#,
	.cfi_def_cfa_register 6
	movq	%rdi, -8(%rbp)	# this, this
# /usr/include/c++/7/chrono:343: 	{ return __r; }
	.loc 1 343 0
	movq	-8(%rbp), %rax	# this, tmp89
	movq	(%rax), %rax	# this_2(D)->__r, _3
	popq	%rbp	#
	.cfi_def_cfa 7, 8
	ret
	.cfi_endproc
.LFE5347:
	.size	_ZNKSt6chrono8durationIlSt5ratioILl1ELl1000000000EEE5countEv, .-_ZNKSt6chrono8durationIlSt5ratioILl1ELl1000000000EEE5countEv
	.section	.text._ZNKSt6chrono10time_pointINS_3_V212system_clockENS_8durationIlSt5ratioILl1ELl1000000000EEEEE16time_since_epochEv,"axG",@progbits,_ZNKSt6chrono10time_pointINS_3_V212system_clockENS_8durationIlSt5ratioILl1ELl1000000000EEEEE16time_since_epochEv,comdat
	.align 2
	.weak	_ZNKSt6chrono10time_pointINS_3_V212system_clockENS_8durationIlSt5ratioILl1ELl1000000000EEEEE16time_since_epochEv
	.type	_ZNKSt6chrono10time_pointINS_3_V212system_clockENS_8durationIlSt5ratioILl1ELl1000000000EEEEE16time_since_epochEv, @function
_ZNKSt6chrono10time_pointINS_3_V212system_clockENS_8durationIlSt5ratioILl1ELl1000000000EEEEE16time_since_epochEv:
.LFB5349:
	.loc 1 639 0
	.cfi_startproc
	pushq	%rbp	#
	.cfi_def_cfa_offset 16
	.cfi_offset 6, -16
	movq	%rsp, %rbp	#,
	.cfi_def_cfa_register 6
	movq	%rdi, -8(%rbp)	# this, this
# /usr/include/c++/7/chrono:640: 	{ return __d; }
	.loc 1 640 0
	movq	-8(%rbp), %rax	# this, tmp89
	movq	(%rax), %rax	# this_2(D)->__d, D.61815
	popq	%rbp	#
	.cfi_def_cfa 7, 8
	ret
	.cfi_endproc
.LFE5349:
	.size	_ZNKSt6chrono10time_pointINS_3_V212system_clockENS_8durationIlSt5ratioILl1ELl1000000000EEEEE16time_since_epochEv, .-_ZNKSt6chrono10time_pointINS_3_V212system_clockENS_8durationIlSt5ratioILl1ELl1000000000EEEEE16time_since_epochEv
	.section	.text._ZNSt6chronomiIlSt5ratioILl1ELl1000000000EElS2_EENSt11common_typeIJNS_8durationIT_T0_EENS4_IT1_T2_EEEE4typeERKS7_RKSA_,"axG",@progbits,_ZNSt6chronomiIlSt5ratioILl1ELl1000000000EElS2_EENSt11common_typeIJNS_8durationIT_T0_EENS4_IT1_T2_EEEE4typeERKS7_RKSA_,comdat
	.weak	_ZNSt6chronomiIlSt5ratioILl1ELl1000000000EElS2_EENSt11common_typeIJNS_8durationIT_T0_EENS4_IT1_T2_EEEE4typeERKS7_RKSA_
	.type	_ZNSt6chronomiIlSt5ratioILl1ELl1000000000EElS2_EENSt11common_typeIJNS_8durationIT_T0_EENS4_IT1_T2_EEEE4typeERKS7_RKSA_, @function
_ZNSt6chronomiIlSt5ratioILl1ELl1000000000EElS2_EENSt11common_typeIJNS_8durationIT_T0_EENS4_IT1_T2_EEEE4typeERKS7_RKSA_:
.LFB5372:
	.loc 1 459 0
	.cfi_startproc
	pushq	%rbp	#
	.cfi_def_cfa_offset 16
	.cfi_offset 6, -16
	movq	%rsp, %rbp	#,
	.cfi_def_cfa_register 6
	pushq	%rbx	#
	subq	$72, %rsp	#,
	.cfi_offset 3, -24
	movq	%rdi, -72(%rbp)	# __lhs, __lhs
	movq	%rsi, -80(%rbp)	# __rhs, __rhs
# /usr/include/c++/7/chrono:459:       operator-(const duration<_Rep1, _Period1>& __lhs,
	.loc 1 459 0
	movq	%fs:40, %rax	#, tmp101
	movq	%rax, -24(%rbp)	# tmp101, D.62046
	xorl	%eax, %eax	# tmp101
# /usr/include/c++/7/chrono:465: 	return __cd(__cd(__lhs).count() - __cd(__rhs).count());
	.loc 1 465 0
	movq	-72(%rbp), %rax	# __lhs, tmp92
	movq	(%rax), %rax	# *__lhs_5(D), tmp93
	movq	%rax, -56(%rbp)	# tmp93, D.58692
	leaq	-56(%rbp), %rax	#, tmp94
	movq	%rax, %rdi	# tmp94,
	call	_ZNKSt6chrono8durationIlSt5ratioILl1ELl1000000000EEE5countEv	#
	movq	%rax, %rbx	#, _1
	movq	-80(%rbp), %rax	# __rhs, tmp95
	movq	(%rax), %rax	# *__rhs_8(D), tmp96
	movq	%rax, -48(%rbp)	# tmp96, D.58693
	leaq	-48(%rbp), %rax	#, tmp97
	movq	%rax, %rdi	# tmp97,
	call	_ZNKSt6chrono8durationIlSt5ratioILl1ELl1000000000EEE5countEv	#
	subq	%rax, %rbx	# _2, _1
	movq	%rbx, %rax	# _1, _3
	movq	%rax, -40(%rbp)	# _3, D.58694
	leaq	-40(%rbp), %rdx	#, tmp98
	leaq	-32(%rbp), %rax	#, tmp99
	movq	%rdx, %rsi	# tmp98,
	movq	%rax, %rdi	# tmp99,
	call	_ZNSt6chrono8durationIlSt5ratioILl1ELl1000000000EEEC1IlvEERKT_	#
	movq	-32(%rbp), %rax	# D.58695, D.61817
# /usr/include/c++/7/chrono:466:       }
	.loc 1 466 0
	movq	-24(%rbp), %rcx	# D.62046, tmp102
	xorq	%fs:40, %rcx	#, tmp102
	je	.L8	#,
	call	__stack_chk_fail@PLT	#
.L8:
	addq	$72, %rsp	#,
	popq	%rbx	#
	popq	%rbp	#
	.cfi_def_cfa 7, 8
	ret
	.cfi_endproc
.LFE5372:
	.size	_ZNSt6chronomiIlSt5ratioILl1ELl1000000000EElS2_EENSt11common_typeIJNS_8durationIT_T0_EENS4_IT1_T2_EEEE4typeERKS7_RKSA_, .-_ZNSt6chronomiIlSt5ratioILl1ELl1000000000EElS2_EENSt11common_typeIJNS_8durationIT_T0_EENS4_IT1_T2_EEEE4typeERKS7_RKSA_
	.section	.text._ZNSt6chronomiINS_3_V212system_clockENS_8durationIlSt5ratioILl1ELl1000000000EEEES6_EENSt11common_typeIJT0_T1_EE4typeERKNS_10time_pointIT_S8_EERKNSC_ISD_S9_EE,"axG",@progbits,_ZNSt6chronomiINS_3_V212system_clockENS_8durationIlSt5ratioILl1ELl1000000000EEEES6_EENSt11common_typeIJT0_T1_EE4typeERKNS_10time_pointIT_S8_EERKNSC_ISD_S9_EE,comdat
	.weak	_ZNSt6chronomiINS_3_V212system_clockENS_8durationIlSt5ratioILl1ELl1000000000EEEES6_EENSt11common_typeIJT0_T1_EE4typeERKNS_10time_pointIT_S8_EERKNSC_ISD_S9_EE
	.type	_ZNSt6chronomiINS_3_V212system_clockENS_8durationIlSt5ratioILl1ELl1000000000EEEES6_EENSt11common_typeIJT0_T1_EE4typeERKNS_10time_pointIT_S8_EERKNSC_ISD_S9_EE, @function
_ZNSt6chronomiINS_3_V212system_clockENS_8durationIlSt5ratioILl1ELl1000000000EEEES6_EENSt11common_typeIJT0_T1_EE4typeERKNS_10time_pointIT_S8_EERKNSC_ISD_S9_EE:
.LFB5371:
	.loc 1 752 0
	.cfi_startproc
	pushq	%rbp	#
	.cfi_def_cfa_offset 16
	.cfi_offset 6, -16
	movq	%rsp, %rbp	#,
	.cfi_def_cfa_register 6
	subq	$48, %rsp	#,
	movq	%rdi, -40(%rbp)	# __lhs, __lhs
	movq	%rsi, -48(%rbp)	# __rhs, __rhs
# /usr/include/c++/7/chrono:752:       operator-(const time_point<_Clock, _Dur1>& __lhs,
	.loc 1 752 0
	movq	%fs:40, %rax	#, tmp98
	movq	%rax, -8(%rbp)	# tmp98, D.62048
	xorl	%eax, %eax	# tmp98
# /usr/include/c++/7/chrono:754:       { return __lhs.time_since_epoch() - __rhs.time_since_epoch(); }
	.loc 1 754 0
	movq	-48(%rbp), %rax	# __rhs, tmp89
	movq	%rax, %rdi	# tmp89,
	call	_ZNKSt6chrono10time_pointINS_3_V212system_clockENS_8durationIlSt5ratioILl1ELl1000000000EEEEE16time_since_epochEv	#
	movq	%rax, -16(%rbp)	# tmp91, D.58683
	movq	-40(%rbp), %rax	# __lhs, tmp92
	movq	%rax, %rdi	# tmp92,
	call	_ZNKSt6chrono10time_pointINS_3_V212system_clockENS_8durationIlSt5ratioILl1ELl1000000000EEEEE16time_since_epochEv	#
	movq	%rax, -24(%rbp)	# tmp94, D.58682
	leaq	-16(%rbp), %rdx	#, tmp95
	leaq	-24(%rbp), %rax	#, tmp96
	movq	%rdx, %rsi	# tmp95,
	movq	%rax, %rdi	# tmp96,
	call	_ZNSt6chronomiIlSt5ratioILl1ELl1000000000EElS2_EENSt11common_typeIJNS_8durationIT_T0_EENS4_IT1_T2_EEEE4typeERKS7_RKSA_	#
	movq	-8(%rbp), %rcx	# D.62048, tmp99
	xorq	%fs:40, %rcx	#, tmp99
	je	.L11	#,
	call	__stack_chk_fail@PLT	#
.L11:
	leave
	.cfi_def_cfa 7, 8
	ret
	.cfi_endproc
.LFE5371:
	.size	_ZNSt6chronomiINS_3_V212system_clockENS_8durationIlSt5ratioILl1ELl1000000000EEEES6_EENSt11common_typeIJT0_T1_EE4typeERKNS_10time_pointIT_S8_EERKNSC_ISD_S9_EE, .-_ZNSt6chronomiINS_3_V212system_clockENS_8durationIlSt5ratioILl1ELl1000000000EEEES6_EENSt11common_typeIJT0_T1_EE4typeERKNS_10time_pointIT_S8_EERKNSC_ISD_S9_EE
	.section	.text._ZNSt6chrono8durationIdSt5ratioILl1ELl1EEEC1IdvEERKT_,"axG",@progbits,_ZNSt6chrono8durationIdSt5ratioILl1ELl1EEEC1IdvEERKT_,comdat
	.align 2
	.weak	_ZNSt6chrono8durationIdSt5ratioILl1ELl1EEEC1IdvEERKT_
	.type	_ZNSt6chrono8durationIdSt5ratioILl1ELl1EEEC1IdvEERKT_, @function
_ZNSt6chrono8durationIdSt5ratioILl1ELl1EEEC1IdvEERKT_:
.LFB5378:
	.loc 1 327 0
	.cfi_startproc
	pushq	%rbp	#
	.cfi_def_cfa_offset 16
	.cfi_offset 6, -16
	movq	%rsp, %rbp	#,
	.cfi_def_cfa_register 6
	movq	%rdi, -8(%rbp)	# this, this
	movq	%rsi, -16(%rbp)	# __rep, __rep
.LBB57:
# /usr/include/c++/7/chrono:328: 	  : __r(static_cast<rep>(__rep)) { }
	.loc 1 328 0
	movq	-16(%rbp), %rax	# __rep, tmp88
	vmovsd	(%rax), %xmm0	# *__rep_5(D), _1
	movq	-8(%rbp), %rax	# this, tmp89
	vmovsd	%xmm0, (%rax)	# _1, this_3(D)->__r
.LBE57:
	nop
	popq	%rbp	#
	.cfi_def_cfa 7, 8
	ret
	.cfi_endproc
.LFE5378:
	.size	_ZNSt6chrono8durationIdSt5ratioILl1ELl1EEEC1IdvEERKT_, .-_ZNSt6chrono8durationIdSt5ratioILl1ELl1EEEC1IdvEERKT_
	.section	.text._ZNSt6chrono20__duration_cast_implINS_8durationIdSt5ratioILl1ELl1EEEES2_ILl1ELl1000000000EEdLb1ELb0EE6__castIlS5_EES4_RKNS1_IT_T0_EE,"axG",@progbits,_ZNSt6chrono20__duration_cast_implINS_8durationIdSt5ratioILl1ELl1EEEES2_ILl1ELl1000000000EEdLb1ELb0EE6__castIlS5_EES4_RKNS1_IT_T0_EE,comdat
	.weak	_ZNSt6chrono20__duration_cast_implINS_8durationIdSt5ratioILl1ELl1EEEES2_ILl1ELl1000000000EEdLb1ELb0EE6__castIlS5_EES4_RKNS1_IT_T0_EE
	.type	_ZNSt6chrono20__duration_cast_implINS_8durationIdSt5ratioILl1ELl1EEEES2_ILl1ELl1000000000EEdLb1ELb0EE6__castIlS5_EES4_RKNS1_IT_T0_EE, @function
_ZNSt6chrono20__duration_cast_implINS_8durationIdSt5ratioILl1ELl1EEEES2_ILl1ELl1000000000EEdLb1ELb0EE6__castIlS5_EES4_RKNS1_IT_T0_EE:
.LFB5375:
	.loc 1 159 0
	.cfi_startproc
	pushq	%rbp	#
	.cfi_def_cfa_offset 16
	.cfi_offset 6, -16
	movq	%rsp, %rbp	#,
	.cfi_def_cfa_register 6
	subq	$48, %rsp	#,
	movq	%rdi, -40(%rbp)	# __d, __d
# /usr/include/c++/7/chrono:159: 	  __cast(const duration<_Rep, _Period>& __d)
	.loc 1 159 0
	movq	%fs:40, %rax	#, tmp97
	movq	%rax, -8(%rbp)	# tmp97, D.62049
	xorl	%eax, %eax	# tmp97
# /usr/include/c++/7/chrono:163: 	      static_cast<_CR>(__d.count()) / static_cast<_CR>(_CF::den)));
	.loc 1 163 0
	movq	-40(%rbp), %rax	# __d, tmp92
	movq	%rax, %rdi	# tmp92,
	call	_ZNKSt6chrono8durationIlSt5ratioILl1ELl1000000000EEE5countEv	#
	vcvtsi2sdq	%rax, %xmm0, %xmm0	# _1, _2
	vmovsd	.LC0(%rip), %xmm1	#, tmp93
	vdivsd	%xmm1, %xmm0, %xmm0	# tmp93, _2, _3
	vmovsd	%xmm0, -24(%rbp)	# _3, D.58960
	leaq	-24(%rbp), %rdx	#, tmp94
	leaq	-16(%rbp), %rax	#, tmp95
	movq	%rdx, %rsi	# tmp94,
	movq	%rax, %rdi	# tmp95,
	call	_ZNSt6chrono8durationIdSt5ratioILl1ELl1EEEC1IdvEERKT_	#
	vmovsd	-16(%rbp), %xmm0	# D.58961, D.61827
# /usr/include/c++/7/chrono:164: 	  }
	.loc 1 164 0
	movq	-8(%rbp), %rax	# D.62049, tmp98
	xorq	%fs:40, %rax	#, tmp98
	je	.L15	#,
	call	__stack_chk_fail@PLT	#
.L15:
	leave
	.cfi_def_cfa 7, 8
	ret
	.cfi_endproc
.LFE5375:
	.size	_ZNSt6chrono20__duration_cast_implINS_8durationIdSt5ratioILl1ELl1EEEES2_ILl1ELl1000000000EEdLb1ELb0EE6__castIlS5_EES4_RKNS1_IT_T0_EE, .-_ZNSt6chrono20__duration_cast_implINS_8durationIdSt5ratioILl1ELl1EEEES2_ILl1ELl1000000000EEdLb1ELb0EE6__castIlS5_EES4_RKNS1_IT_T0_EE
	.section	.text._ZNSt6chrono13duration_castINS_8durationIdSt5ratioILl1ELl1EEEElS2_ILl1ELl1000000000EEEENSt9enable_ifIXsrNS_13__is_durationIT_EE5valueES8_E4typeERKNS1_IT0_T1_EE,"axG",@progbits,_ZNSt6chrono13duration_castINS_8durationIdSt5ratioILl1ELl1EEEElS2_ILl1ELl1000000000EEEENSt9enable_ifIXsrNS_13__is_durationIT_EE5valueES8_E4typeERKNS1_IT0_T1_EE,comdat
	.weak	_ZNSt6chrono13duration_castINS_8durationIdSt5ratioILl1ELl1EEEElS2_ILl1ELl1000000000EEEENSt9enable_ifIXsrNS_13__is_durationIT_EE5valueES8_E4typeERKNS1_IT0_T1_EE
	.type	_ZNSt6chrono13duration_castINS_8durationIdSt5ratioILl1ELl1EEEElS2_ILl1ELl1000000000EEEENSt9enable_ifIXsrNS_13__is_durationIT_EE5valueES8_E4typeERKNS1_IT0_T1_EE, @function
_ZNSt6chrono13duration_castINS_8durationIdSt5ratioILl1ELl1EEEElS2_ILl1ELl1000000000EEEENSt9enable_ifIXsrNS_13__is_durationIT_EE5valueES8_E4typeERKNS1_IT0_T1_EE:
.LFB5374:
	.loc 1 194 0
	.cfi_startproc
	pushq	%rbp	#
	.cfi_def_cfa_offset 16
	.cfi_offset 6, -16
	movq	%rsp, %rbp	#,
	.cfi_def_cfa_register 6
	subq	$16, %rsp	#,
	movq	%rdi, -8(%rbp)	# __d, __d
# /usr/include/c++/7/chrono:203: 	return __dc::__cast(__d);
	.loc 1 203 0
	movq	-8(%rbp), %rax	# __d, tmp89
	movq	%rax, %rdi	# tmp89,
	call	_ZNSt6chrono20__duration_cast_implINS_8durationIdSt5ratioILl1ELl1EEEES2_ILl1ELl1000000000EEdLb1ELb0EE6__castIlS5_EES4_RKNS1_IT_T0_EE	#
	vmovq	%xmm0, %rax	#, D.61825
	movq	%rax, -16(%rbp)	# D.61825, %sfp
	vmovsd	-16(%rbp), %xmm0	# %sfp, <retval>
# /usr/include/c++/7/chrono:204:       }
	.loc 1 204 0
	leave
	.cfi_def_cfa 7, 8
	ret
	.cfi_endproc
.LFE5374:
	.size	_ZNSt6chrono13duration_castINS_8durationIdSt5ratioILl1ELl1EEEElS2_ILl1ELl1000000000EEEENSt9enable_ifIXsrNS_13__is_durationIT_EE5valueES8_E4typeERKNS1_IT0_T1_EE, .-_ZNSt6chrono13duration_castINS_8durationIdSt5ratioILl1ELl1EEEElS2_ILl1ELl1000000000EEEENSt9enable_ifIXsrNS_13__is_durationIT_EE5valueES8_E4typeERKNS1_IT0_T1_EE
	.section	.text._ZNSt6chrono8durationIdSt5ratioILl1ELl1EEEC1IlS1_ILl1ELl1000000000EEvEERKNS0_IT_T0_EE,"axG",@progbits,_ZNSt6chrono8durationIdSt5ratioILl1ELl1EEEC1IlS1_ILl1ELl1000000000EEvEERKNS0_IT_T0_EE,comdat
	.align 2
	.weak	_ZNSt6chrono8durationIdSt5ratioILl1ELl1EEEC1IlS1_ILl1ELl1000000000EEvEERKNS0_IT_T0_EE
	.type	_ZNSt6chrono8durationIdSt5ratioILl1ELl1EEEC1IlS1_ILl1ELl1000000000EEvEERKNS0_IT_T0_EE, @function
_ZNSt6chrono8durationIdSt5ratioILl1ELl1EEEC1IlS1_ILl1ELl1000000000EEvEERKNS0_IT_T0_EE:
.LFB5380:
	.loc 1 334 0
	.cfi_startproc
	pushq	%rbp	#
	.cfi_def_cfa_offset 16
	.cfi_offset 6, -16
	movq	%rsp, %rbp	#,
	.cfi_def_cfa_register 6
	subq	$48, %rsp	#,
	movq	%rdi, -24(%rbp)	# this, this
	movq	%rsi, -32(%rbp)	# __d, __d
# /usr/include/c++/7/chrono:334: 	  constexpr duration(const duration<_Rep2, _Period2>& __d)
	.loc 1 334 0
	movq	%fs:40, %rax	#, tmp93
	movq	%rax, -8(%rbp)	# tmp93, D.62051
	xorl	%eax, %eax	# tmp93
.LBB58:
# /usr/include/c++/7/chrono:335: 	  : __r(duration_cast<duration>(__d).count()) { }
	.loc 1 335 0
	movq	-32(%rbp), %rax	# __d, tmp88
	movq	%rax, %rdi	# tmp88,
	call	_ZNSt6chrono13duration_castINS_8durationIdSt5ratioILl1ELl1EEEElS2_ILl1ELl1000000000EEEENSt9enable_ifIXsrNS_13__is_durationIT_EE5valueES8_E4typeERKNS1_IT0_T1_EE	#
	vmovq	%xmm0, %rax	#, tmp89
	movq	%rax, -40(%rbp)	# tmp89, %sfp
	vmovsd	-40(%rbp), %xmm0	# %sfp, tmp90
	vmovsd	%xmm0, -16(%rbp)	# tmp90, D.58972
	leaq	-16(%rbp), %rax	#, tmp91
	movq	%rax, %rdi	# tmp91,
	call	_ZNKSt6chrono8durationIdSt5ratioILl1ELl1EEE5countEv	#
	vmovq	%xmm0, %rdx	#, _1
	movq	-24(%rbp), %rax	# this, tmp92
	movq	%rdx, (%rax)	# _1, this_3(D)->__r
.LBE58:
	nop
	movq	-8(%rbp), %rax	# D.62051, tmp94
	xorq	%fs:40, %rax	#, tmp94
	je	.L19	#,
	call	__stack_chk_fail@PLT	#
.L19:
	leave
	.cfi_def_cfa 7, 8
	ret
	.cfi_endproc
.LFE5380:
	.size	_ZNSt6chrono8durationIdSt5ratioILl1ELl1EEEC1IlS1_ILl1ELl1000000000EEvEERKNS0_IT_T0_EE, .-_ZNSt6chrono8durationIdSt5ratioILl1ELl1EEEC1IlS1_ILl1ELl1000000000EEvEERKNS0_IT_T0_EE
	.section	.text._ZNKSt6chrono8durationIdSt5ratioILl1ELl1EEE5countEv,"axG",@progbits,_ZNKSt6chrono8durationIdSt5ratioILl1ELl1EEE5countEv,comdat
	.align 2
	.weak	_ZNKSt6chrono8durationIdSt5ratioILl1ELl1EEE5countEv
	.type	_ZNKSt6chrono8durationIdSt5ratioILl1ELl1EEE5countEv, @function
_ZNKSt6chrono8durationIdSt5ratioILl1ELl1EEE5countEv:
.LFB5381:
	.loc 1 342 0
	.cfi_startproc
	pushq	%rbp	#
	.cfi_def_cfa_offset 16
	.cfi_offset 6, -16
	movq	%rsp, %rbp	#,
	.cfi_def_cfa_register 6
	movq	%rdi, -8(%rbp)	# this, this
# /usr/include/c++/7/chrono:343: 	{ return __r; }
	.loc 1 343 0
	movq	-8(%rbp), %rax	# this, tmp89
	vmovsd	(%rax), %xmm0	# this_2(D)->__r, _3
	popq	%rbp	#
	.cfi_def_cfa 7, 8
	ret
	.cfi_endproc
.LFE5381:
	.size	_ZNKSt6chrono8durationIdSt5ratioILl1ELl1EEE5countEv, .-_ZNKSt6chrono8durationIdSt5ratioILl1ELl1EEE5countEv
	.section	.rodata
.LC1:
	.string	"\nNumber of loops:"
.LC2:
	.string	"\nNumber of Threads"
	.align 8
.LC3:
	.string	" \nExecution time for parallel Code:"
.LC4:
	.string	" \nNumber of Mega Flops "
.LC5:
	.string	" \nNumber of Giga Flops "
	.text
	.globl	main
	.type	main, @function
main:
.LFB5367:
	.file 2 "flop.cpp"
	.loc 2 9 0
	.cfi_startproc
	leaq	8(%rsp), %r10	#,
	.cfi_def_cfa 10, 0
	andq	$-32, %rsp	#,
	pushq	-8(%r10)	#
	pushq	%rbp	#
	.cfi_escape 0x10,0x6,0x2,0x76,0
	movq	%rsp, %rbp	#,
	pushq	%r10	#
	.cfi_escape 0xf,0x3,0x76,0x78,0x6
	pushq	%rbx	#
	subq	$160, %rsp	#,
	.cfi_escape 0x10,0x3,0x2,0x76,0x70
	movl	%edi, -148(%rbp)	# argc, argc
	movq	%rsi, -160(%rbp)	# argv, argv
# flop.cpp:9: {
	.loc 2 9 0
	movq	%fs:40, %rax	#, tmp140
	movq	%rax, -24(%rbp)	# tmp140, D.62053
	xorl	%eax, %eax	# tmp140
# flop.cpp:14:  	chrono::time_point<std::chrono::system_clock> start, end;
	.loc 2 14 0
	movq	$0, -128(%rbp)	#, start.__d.__r
	movq	$0, -120(%rbp)	#, end.__d.__r
# flop.cpp:18: 	n = 1000000000;
	.loc 2 18 0
	movq	$1000000000, -96(%rbp)	#, n
# flop.cpp:20: 	start = chrono::system_clock::now();
	.loc 2 20 0
	call	_ZNSt6chrono3_V212system_clock3nowEv@PLT	#
	movq	%rax, -128(%rbp)	# tmp106, start
.LBB59:
# flop.cpp:21: #pragma omp parallel 
	.loc 2 21 0
	movq	-96(%rbp), %rax	# n, tmp107
	movq	%rax, -80(%rbp)	# tmp107, .omp_data_o.14.n
	movl	-132(%rbp), %eax	# num_threads, tmp108
	movl	%eax, -72(%rbp)	# tmp108, .omp_data_o.14.num_threads
	leaq	-80(%rbp), %rax	#, tmp109
	movl	$0, %ecx	#,
	movl	$0, %edx	#,
	movq	%rax, %rsi	# tmp109,
	leaq	main._omp_fn.0(%rip), %rdi	#,
	call	GOMP_parallel@PLT	#
	movl	-72(%rbp), %eax	# .omp_data_o.14.num_threads, tmp110
	movl	%eax, -132(%rbp)	# tmp110, num_threads
.LBE59:
# flop.cpp:72: 	end = chrono::system_clock::now();
	.loc 2 72 0
	call	_ZNSt6chrono3_V212system_clock3nowEv@PLT	#
	movq	%rax, -120(%rbp)	# tmp112, end
# flop.cpp:74: 	elapsed = end - start;
	.loc 2 74 0
	leaq	-128(%rbp), %rdx	#, tmp113
	leaq	-120(%rbp), %rax	#, tmp114
	movq	%rdx, %rsi	# tmp113,
	movq	%rax, %rdi	# tmp114,
	call	_ZNSt6chronomiINS_3_V212system_clockENS_8durationIlSt5ratioILl1ELl1000000000EEEES6_EENSt11common_typeIJT0_T1_EE4typeERKNS_10time_pointIT_S8_EERKNSC_ISD_S9_EE	#
	movq	%rax, -104(%rbp)	# tmp116, D.58671
	leaq	-104(%rbp), %rdx	#, tmp117
	leaq	-80(%rbp), %rax	#, tmp118
	movq	%rdx, %rsi	# tmp117,
	movq	%rax, %rdi	# tmp118,
	call	_ZNSt6chrono8durationIdSt5ratioILl1ELl1EEEC1IlS1_ILl1ELl1000000000EEvEERKNS0_IT_T0_EE	#
	vmovsd	-80(%rbp), %xmm0	# D.58703, tmp119
	vmovsd	%xmm0, -112(%rbp)	# tmp119, elapsed
# flop.cpp:76: 	flops = num_threads * 2 * 20 * (n/10) * 8 /(1024*1024);
	.loc 2 76 0
	movl	-132(%rbp), %eax	# num_threads, tmp120
	movslq	%eax, %rcx	# tmp120, _1
	movq	-96(%rbp), %rax	# n, tmp121
	movabsq	$-3689348814741910323, %rdx	#, tmp123
	mulq	%rdx	# tmp123
	movq	%rdx, %rax	# tmp122, tmp122
	shrq	$3, %rax	#, tmp122
	imulq	%rax, %rcx	# _2, _1
	movq	%rcx, %rdx	# _1, _3
	movq	%rdx, %rax	# _3, tmp124
	salq	$2, %rax	#, tmp124
	addq	%rdx, %rax	# _3, tmp124
	salq	$6, %rax	#, tmp125
	shrq	$20, %rax	#, _5
	movq	%rax, -88(%rbp)	# _5, flops
# flop.cpp:78: 	flops = flops / (elapsed.count());
	.loc 2 78 0
	vcvtsi2sdq	-88(%rbp), %xmm1, %xmm1	# flops, _6
	vmovsd	%xmm1, -168(%rbp)	# _6, %sfp
	leaq	-112(%rbp), %rax	#, tmp126
	movq	%rax, %rdi	# tmp126,
	call	_ZNKSt6chrono8durationIdSt5ratioILl1ELl1EEE5countEv	#
	vmovsd	-168(%rbp), %xmm1	# %sfp, _6
	vdivsd	%xmm0, %xmm1, %xmm0	# _7, _6, _8
	vcvttsd2siq	%xmm0, %rax	# _8, tmp127
	movq	%rax, -88(%rbp)	# tmp127, flops
# flop.cpp:80: 	cout<<"\nNumber of loops:"<<n/10;
	.loc 2 80 0
	leaq	.LC1(%rip), %rsi	#,
	leaq	_ZSt4cout(%rip), %rdi	#,
	call	_ZStlsISt11char_traitsIcEERSt13basic_ostreamIcT_ES5_PKc@PLT	#
	movq	%rax, %rcx	#, _9
	movq	-96(%rbp), %rax	# n, tmp128
	movabsq	$-3689348814741910323, %rdx	#, tmp130
	mulq	%rdx	# tmp130
	movq	%rdx, %rax	# tmp129, tmp129
	shrq	$3, %rax	#, tmp129
	movq	%rax, %rsi	# _10,
	movq	%rcx, %rdi	# _9,
	call	_ZNSolsEm@PLT	#
# flop.cpp:81: 	cout<<"\nNumber of Threads"<<num_threads;
	.loc 2 81 0
	leaq	.LC2(%rip), %rsi	#,
	leaq	_ZSt4cout(%rip), %rdi	#,
	call	_ZStlsISt11char_traitsIcEERSt13basic_ostreamIcT_ES5_PKc@PLT	#
	movq	%rax, %rdx	#, _11
	movl	-132(%rbp), %eax	# num_threads, tmp131
	movl	%eax, %esi	# tmp131,
	movq	%rdx, %rdi	# _11,
	call	_ZNSolsEi@PLT	#
# flop.cpp:82: 	cout<<" \nExecution time for parallel Code:"<<elapsed.count();
	.loc 2 82 0
	leaq	.LC3(%rip), %rsi	#,
	leaq	_ZSt4cout(%rip), %rdi	#,
	call	_ZStlsISt11char_traitsIcEERSt13basic_ostreamIcT_ES5_PKc@PLT	#
	movq	%rax, %rbx	#, _12
	leaq	-112(%rbp), %rax	#, tmp132
	movq	%rax, %rdi	# tmp132,
	call	_ZNKSt6chrono8durationIdSt5ratioILl1ELl1EEE5countEv	#
	movq	%rbx, %rdi	# _12,
	call	_ZNSolsEd@PLT	#
# flop.cpp:83: 	cout<<" \nNumber of Mega Flops "<<flops;
	.loc 2 83 0
	leaq	.LC4(%rip), %rsi	#,
	leaq	_ZSt4cout(%rip), %rdi	#,
	call	_ZStlsISt11char_traitsIcEERSt13basic_ostreamIcT_ES5_PKc@PLT	#
	movq	%rax, %rdx	#, _14
	movq	-88(%rbp), %rax	# flops, tmp133
	movq	%rax, %rsi	# tmp133,
	movq	%rdx, %rdi	# _14,
	call	_ZNSolsEl@PLT	#
# flop.cpp:84: 	cout<<" \nNumber of Giga Flops "<<flops/1024;
	.loc 2 84 0
	leaq	.LC5(%rip), %rsi	#,
	leaq	_ZSt4cout(%rip), %rdi	#,
	call	_ZStlsISt11char_traitsIcEERSt13basic_ostreamIcT_ES5_PKc@PLT	#
	movq	%rax, %rcx	#, _15
	movq	-88(%rbp), %rax	# flops, tmp134
	leaq	1023(%rax), %rdx	#, tmp136
	testq	%rax, %rax	# tmp135
	cmovs	%rdx, %rax	# tmp136,, tmp135
	sarq	$10, %rax	#, tmp137
	movq	%rax, %rsi	# _16,
	movq	%rcx, %rdi	# _15,
	call	_ZNSolsEl@PLT	#
# flop.cpp:85: 	return 0;
	.loc 2 85 0
	movl	$0, %eax	#, _54
# flop.cpp:86: }
	.loc 2 86 0
	movq	-24(%rbp), %rbx	# D.62053, tmp143
	xorq	%fs:40, %rbx	#, tmp143
	je	.L24	#,
	call	__stack_chk_fail@PLT	#
.L24:
	addq	$160, %rsp	#,
	popq	%rbx	#
	popq	%r10	#
	.cfi_def_cfa 10, 0
	popq	%rbp	#
	leaq	-8(%r10), %rsp	#,
	.cfi_def_cfa 7, 8
	ret
	.cfi_endproc
.LFE5367:
	.size	main, .-main
	.type	_Z41__static_initialization_and_destruction_0ii, @function
_Z41__static_initialization_and_destruction_0ii:
.LFB5705:
	.loc 2 86 0
	.cfi_startproc
	pushq	%rbp	#
	.cfi_def_cfa_offset 16
	.cfi_offset 6, -16
	movq	%rsp, %rbp	#,
	.cfi_def_cfa_register 6
	subq	$16, %rsp	#,
	movl	%edi, -4(%rbp)	# __initialize_p, __initialize_p
	movl	%esi, -8(%rbp)	# __priority, __priority
# flop.cpp:86: }
	.loc 2 86 0
	cmpl	$1, -4(%rbp)	#, __initialize_p
	jne	.L27	#,
# flop.cpp:86: }
	.loc 2 86 0 is_stmt 0 discriminator 1
	cmpl	$65535, -8(%rbp)	#, __priority
	jne	.L27	#,
# /usr/include/c++/7/iostream:74:   static ios_base::Init __ioinit;
	.file 3 "/usr/include/c++/7/iostream"
	.loc 3 74 0 is_stmt 1
	leaq	_ZStL8__ioinit(%rip), %rdi	#,
	call	_ZNSt8ios_base4InitC1Ev@PLT	#
	leaq	__dso_handle(%rip), %rdx	#,
	leaq	_ZStL8__ioinit(%rip), %rsi	#,
	movq	_ZNSt8ios_base4InitD1Ev@GOTPCREL(%rip), %rax	#, tmp87
	movq	%rax, %rdi	# tmp87,
	call	__cxa_atexit@PLT	#
.L27:
# flop.cpp:86: }
	.loc 2 86 0
	nop
	leave
	.cfi_def_cfa 7, 8
	ret
	.cfi_endproc
.LFE5705:
	.size	_Z41__static_initialization_and_destruction_0ii, .-_Z41__static_initialization_and_destruction_0ii
	.type	_GLOBAL__sub_I_main, @function
_GLOBAL__sub_I_main:
.LFB5706:
	.loc 2 86 0
	.cfi_startproc
	pushq	%rbp	#
	.cfi_def_cfa_offset 16
	.cfi_offset 6, -16
	movq	%rsp, %rbp	#,
	.cfi_def_cfa_register 6
# flop.cpp:86: }
	.loc 2 86 0
	movl	$65535, %esi	#,
	movl	$1, %edi	#,
	call	_Z41__static_initialization_and_destruction_0ii	#
	popq	%rbp	#
	.cfi_def_cfa 7, 8
	ret
	.cfi_endproc
.LFE5706:
	.size	_GLOBAL__sub_I_main, .-_GLOBAL__sub_I_main
	.section	.init_array,"aw"
	.align 8
	.quad	_GLOBAL__sub_I_main
	.section	.rodata
.LC11:
	.string	"\n Values of x:"
	.text
	.type	main._omp_fn.0, @function
main._omp_fn.0:
.LFB5707:
	.loc 2 21 0
	.cfi_startproc
	.cfi_personality 0x9b,DW.ref.__gxx_personality_v0
	.cfi_lsda 0x1b,.LLSDA5707
	leaq	8(%rsp), %r10	#,
	.cfi_def_cfa 10, 0
	andq	$-32, %rsp	#,
	pushq	-8(%r10)	#
	pushq	%rbp	#
	.cfi_escape 0x10,0x6,0x2,0x76,0
	movq	%rsp, %rbp	#,
	pushq	%r10	#
	.cfi_escape 0xf,0x3,0x76,0x78,0x6
	subq	$2568, %rsp	#,
	movq	%rdi, -2568(%rbp)	# .omp_data_i, .omp_data_i
# flop.cpp:21: #pragma omp parallel 
	.loc 2 21 0
	movq	%fs:40, %rax	#, tmp313
	movq	%rax, -24(%rbp)	# tmp313, D.62059
	xorl	%eax, %eax	# tmp313
	movq	-2568(%rbp), %rax	# .omp_data_i, tmp126
	movq	(%rax), %rax	# .omp_data_i_5(D)->n, tmp127
	movq	%rax, -2424(%rbp)	# tmp127, n
	vmovss	.LC6(%rip), %xmm0	#, tmp128
	vmovss	%xmm0, -2464(%rbp)	# tmp128, __A
	vmovss	.LC7(%rip), %xmm0	#, tmp129
	vmovss	%xmm0, -2460(%rbp)	# tmp129, __B
	vmovss	.LC8(%rip), %xmm0	#, tmp130
	vmovss	%xmm0, -2456(%rbp)	# tmp130, __C
	vmovss	.LC6(%rip), %xmm0	#, tmp131
	vmovss	%xmm0, -2452(%rbp)	# tmp131, __D
	vmovss	.LC9(%rip), %xmm0	#, tmp132
	vmovss	%xmm0, -2448(%rbp)	# tmp132, __E
	vmovss	.LC6(%rip), %xmm0	#, tmp133
	vmovss	%xmm0, -2444(%rbp)	# tmp133, __F
	vmovss	.LC6(%rip), %xmm0	#, tmp134
	vmovss	%xmm0, -2440(%rbp)	# tmp134, __G
	vmovss	.LC10(%rip), %xmm0	#, tmp135
	vmovss	%xmm0, -2436(%rbp)	# tmp135, __H
.LBB60:
.LBB61:
.LBB62:
# /usr/lib/gcc/x86_64-linux-gnu/7/include/avxintrin.h:1252: 				 __D, __C, __B, __A };
	.file 4 "/usr/lib/gcc/x86_64-linux-gnu/7/include/avxintrin.h"
	.loc 4 1252 0
	vmovss	-2464(%rbp), %xmm1	# __A, tmp138
	vmovss	-2460(%rbp), %xmm0	# __B, tmp139
	vunpcklps	%xmm1, %xmm0, %xmm2	# tmp138, tmp139, tmp137
	vmovss	-2456(%rbp), %xmm1	# __C, tmp141
	vmovss	-2452(%rbp), %xmm0	# __D, tmp142
	vunpcklps	%xmm1, %xmm0, %xmm1	# tmp141, tmp142, tmp140
	vmovss	-2448(%rbp), %xmm3	# __E, tmp144
	vmovss	-2444(%rbp), %xmm0	# __F, tmp145
	vunpcklps	%xmm3, %xmm0, %xmm3	# tmp144, tmp145, tmp143
	vmovss	-2440(%rbp), %xmm4	# __G, tmp147
	vmovss	-2436(%rbp), %xmm0	# __H, tmp148
	vunpcklps	%xmm4, %xmm0, %xmm0	# tmp147, tmp148, tmp146
	vmovlhps	%xmm3, %xmm0, %xmm0	# tmp143, tmp146, tmp149
	vmovlhps	%xmm2, %xmm1, %xmm1	# tmp137, tmp140, tmp150
	vinsertf128	$0x1, %xmm1, %ymm0, %ymm0	# tmp150, tmp149, tmp136
.LBE62:
.LBE61:
# flop.cpp:23: 		__m256 b = _mm256_set_ps(0.1,0.9,0.6,0.1,0.4,0.1,0.1,0.2);
	.loc 2 23 0
	vmovaps	%ymm0, -2352(%rbp)	# D.61903, b
	vmovss	.LC6(%rip), %xmm0	#, tmp151
	vmovss	%xmm0, -2496(%rbp)	# tmp151, __A
	vmovss	.LC6(%rip), %xmm0	#, tmp152
	vmovss	%xmm0, -2492(%rbp)	# tmp152, __B
	vmovss	.LC6(%rip), %xmm0	#, tmp153
	vmovss	%xmm0, -2488(%rbp)	# tmp153, __C
	vmovss	.LC6(%rip), %xmm0	#, tmp154
	vmovss	%xmm0, -2484(%rbp)	# tmp154, __D
	vmovss	.LC6(%rip), %xmm0	#, tmp155
	vmovss	%xmm0, -2480(%rbp)	# tmp155, __E
	vmovss	.LC6(%rip), %xmm0	#, tmp156
	vmovss	%xmm0, -2476(%rbp)	# tmp156, __F
	vmovss	.LC6(%rip), %xmm0	#, tmp157
	vmovss	%xmm0, -2472(%rbp)	# tmp157, __G
	vmovss	.LC6(%rip), %xmm0	#, tmp158
	vmovss	%xmm0, -2468(%rbp)	# tmp158, __H
.LBB63:
.LBB64:
# /usr/lib/gcc/x86_64-linux-gnu/7/include/avxintrin.h:1252: 				 __D, __C, __B, __A };
	.loc 4 1252 0
	vmovss	-2496(%rbp), %xmm1	# __A, tmp161
	vmovss	-2492(%rbp), %xmm0	# __B, tmp162
	vunpcklps	%xmm1, %xmm0, %xmm2	# tmp161, tmp162, tmp160
	vmovss	-2488(%rbp), %xmm1	# __C, tmp164
	vmovss	-2484(%rbp), %xmm0	# __D, tmp165
	vunpcklps	%xmm1, %xmm0, %xmm1	# tmp164, tmp165, tmp163
	vmovss	-2480(%rbp), %xmm3	# __E, tmp167
	vmovss	-2476(%rbp), %xmm0	# __F, tmp168
	vunpcklps	%xmm3, %xmm0, %xmm3	# tmp167, tmp168, tmp166
	vmovss	-2472(%rbp), %xmm4	# __G, tmp170
	vmovss	-2468(%rbp), %xmm0	# __H, tmp171
	vunpcklps	%xmm4, %xmm0, %xmm0	# tmp170, tmp171, tmp169
	vmovlhps	%xmm3, %xmm0, %xmm0	# tmp166, tmp169, tmp172
	vmovlhps	%xmm2, %xmm1, %xmm1	# tmp160, tmp163, tmp173
	vinsertf128	$0x1, %xmm1, %ymm0, %ymm0	# tmp173, tmp172, tmp159
.LBE64:
.LBE63:
# flop.cpp:25: 		__m256 c = _mm256_set_ps(0.1,0.1,0.1,0.1,0.1,0.1,0.1,0.1);
	.loc 2 25 0
	vmovaps	%ymm0, -2320(%rbp)	# D.61892, c
	vmovss	.LC6(%rip), %xmm0	#, tmp174
	vmovss	%xmm0, -2528(%rbp)	# tmp174, __A
	vmovss	.LC7(%rip), %xmm0	#, tmp175
	vmovss	%xmm0, -2524(%rbp)	# tmp175, __B
	vmovss	.LC8(%rip), %xmm0	#, tmp176
	vmovss	%xmm0, -2520(%rbp)	# tmp176, __C
	vmovss	.LC6(%rip), %xmm0	#, tmp177
	vmovss	%xmm0, -2516(%rbp)	# tmp177, __D
	vmovss	.LC9(%rip), %xmm0	#, tmp178
	vmovss	%xmm0, -2512(%rbp)	# tmp178, __E
	vmovss	.LC6(%rip), %xmm0	#, tmp179
	vmovss	%xmm0, -2508(%rbp)	# tmp179, __F
	vmovss	.LC6(%rip), %xmm0	#, tmp180
	vmovss	%xmm0, -2504(%rbp)	# tmp180, __G
	vmovss	.LC10(%rip), %xmm0	#, tmp181
	vmovss	%xmm0, -2500(%rbp)	# tmp181, __H
.LBB65:
.LBB66:
# /usr/lib/gcc/x86_64-linux-gnu/7/include/avxintrin.h:1252: 				 __D, __C, __B, __A };
	.loc 4 1252 0
	vmovss	-2528(%rbp), %xmm1	# __A, tmp184
	vmovss	-2524(%rbp), %xmm0	# __B, tmp185
	vunpcklps	%xmm1, %xmm0, %xmm2	# tmp184, tmp185, tmp183
	vmovss	-2520(%rbp), %xmm1	# __C, tmp187
	vmovss	-2516(%rbp), %xmm0	# __D, tmp188
	vunpcklps	%xmm1, %xmm0, %xmm1	# tmp187, tmp188, tmp186
	vmovss	-2512(%rbp), %xmm3	# __E, tmp190
	vmovss	-2508(%rbp), %xmm0	# __F, tmp191
	vunpcklps	%xmm3, %xmm0, %xmm3	# tmp190, tmp191, tmp189
	vmovss	-2504(%rbp), %xmm4	# __G, tmp193
	vmovss	-2500(%rbp), %xmm0	# __H, tmp194
	vunpcklps	%xmm4, %xmm0, %xmm0	# tmp193, tmp194, tmp192
	vmovlhps	%xmm3, %xmm0, %xmm0	# tmp189, tmp192, tmp195
	vmovlhps	%xmm2, %xmm1, %xmm1	# tmp183, tmp186, tmp196
	vinsertf128	$0x1, %xmm1, %ymm0, %ymm0	# tmp196, tmp195, tmp182
.LBE66:
.LBE65:
# flop.cpp:27: 		__m256 e = _mm256_set_ps(0.1,0.9,0.6,0.1,0.4,0.1,0.1,0.2);
	.loc 2 27 0
	vmovaps	%ymm0, -2288(%rbp)	# D.61881, e
	vmovss	.LC6(%rip), %xmm0	#, tmp197
	vmovss	%xmm0, -2560(%rbp)	# tmp197, __A
	vmovss	.LC6(%rip), %xmm0	#, tmp198
	vmovss	%xmm0, -2556(%rbp)	# tmp198, __B
	vmovss	.LC6(%rip), %xmm0	#, tmp199
	vmovss	%xmm0, -2552(%rbp)	# tmp199, __C
	vmovss	.LC6(%rip), %xmm0	#, tmp200
	vmovss	%xmm0, -2548(%rbp)	# tmp200, __D
	vmovss	.LC6(%rip), %xmm0	#, tmp201
	vmovss	%xmm0, -2544(%rbp)	# tmp201, __E
	vmovss	.LC6(%rip), %xmm0	#, tmp202
	vmovss	%xmm0, -2540(%rbp)	# tmp202, __F
	vmovss	.LC6(%rip), %xmm0	#, tmp203
	vmovss	%xmm0, -2536(%rbp)	# tmp203, __G
	vmovss	.LC6(%rip), %xmm0	#, tmp204
	vmovss	%xmm0, -2532(%rbp)	# tmp204, __H
.LBB67:
.LBB68:
# /usr/lib/gcc/x86_64-linux-gnu/7/include/avxintrin.h:1252: 				 __D, __C, __B, __A };
	.loc 4 1252 0
	vmovss	-2560(%rbp), %xmm1	# __A, tmp207
	vmovss	-2556(%rbp), %xmm0	# __B, tmp208
	vunpcklps	%xmm1, %xmm0, %xmm2	# tmp207, tmp208, tmp206
	vmovss	-2552(%rbp), %xmm1	# __C, tmp210
	vmovss	-2548(%rbp), %xmm0	# __D, tmp211
	vunpcklps	%xmm1, %xmm0, %xmm1	# tmp210, tmp211, tmp209
	vmovss	-2544(%rbp), %xmm3	# __E, tmp213
	vmovss	-2540(%rbp), %xmm0	# __F, tmp214
	vunpcklps	%xmm3, %xmm0, %xmm3	# tmp213, tmp214, tmp212
	vmovss	-2536(%rbp), %xmm4	# __G, tmp216
	vmovss	-2532(%rbp), %xmm0	# __H, tmp217
	vunpcklps	%xmm4, %xmm0, %xmm0	# tmp216, tmp217, tmp215
	vmovlhps	%xmm3, %xmm0, %xmm0	# tmp212, tmp215, tmp218
	vmovlhps	%xmm2, %xmm1, %xmm1	# tmp206, tmp209, tmp219
	vinsertf128	$0x1, %xmm1, %ymm0, %ymm0	# tmp219, tmp218, tmp205
.LBE68:
.LBE67:
# flop.cpp:29: 		__m256 f = _mm256_set_ps(0.1,0.1,0.1,0.1,0.1,0.1,0.1,0.1);
	.loc 2 29 0
	vmovaps	%ymm0, -2256(%rbp)	# D.61870, f
.LBB69:
.LBB70:
# /usr/lib/gcc/x86_64-linux-gnu/7/include/avxintrin.h:1230: 				 0.0, 0.0, 0.0, 0.0 };
	.loc 4 1230 0
	vxorps	%xmm0, %xmm0, %xmm0	# D.61859
.LBE70:
.LBE69:
# flop.cpp:33: 		x = _mm256_setzero_ps();
	.loc 2 33 0
	vmovaps	%ymm0, -2416(%rbp)	# D.61859, x
.LBB71:
.LBB72:
# /usr/lib/gcc/x86_64-linux-gnu/7/include/avxintrin.h:1230: 				 0.0, 0.0, 0.0, 0.0 };
	.loc 4 1230 0
	vxorps	%xmm0, %xmm0, %xmm0	# D.61856
.LBE72:
.LBE71:
# flop.cpp:35: 		y = _mm256_setzero_ps();
	.loc 2 35 0
	vmovaps	%ymm0, -2384(%rbp)	# D.61856, y
# flop.cpp:36: 		num_threads = omp_get_num_threads();
	.loc 2 36 0
	call	omp_get_num_threads@PLT	#
	movl	%eax, %edx	#, _15
	movq	-2568(%rbp), %rax	# .omp_data_i, tmp220
	movl	%edx, 8(%rax)	# _15, .omp_data_i_5(D)->num_threads
.LBB73:
# flop.cpp:38: 		for(uint64_t i=0;i<n;i=i+10){
	.loc 2 38 0
	movq	$0, -2432(%rbp)	#, i
.L57:
# flop.cpp:38: 		for(uint64_t i=0;i<n;i=i+10){
	.loc 2 38 0 is_stmt 0 discriminator 3
	movq	-2432(%rbp), %rax	# i, tmp221
	cmpq	-2424(%rbp), %rax	# n, tmp221
	jb	.L36	#,
.LBE73:
# flop.cpp:70: 		cout<<"\n Values of x:"<<x[1];
	.loc 2 70 0 is_stmt 1
	leaq	.LC11(%rip), %rsi	#,
	leaq	_ZSt4cout(%rip), %rdi	#,
	call	_ZStlsISt11char_traitsIcEERSt13basic_ostreamIcT_ES5_PKc@PLT	#
	movq	%rax, %rdx	#, _72
	movl	-2412(%rbp), %eax	# x, _74
	movl	%eax, -2572(%rbp)	# _74, %sfp
	vmovss	-2572(%rbp), %xmm0	# %sfp,
	movq	%rdx, %rdi	# _72,
	call	_ZNSolsEf@PLT	#
.LBE60:
# flop.cpp:21: #pragma omp parallel 
	.loc 2 21 0
	movq	-24(%rbp), %rax	# D.62059, tmp314
	xorq	%fs:40, %rax	#, tmp314
	je	.L58	#,
	jmp	.L59	#
.L36:
.LBB115:
.LBB114:
# flop.cpp:39: 			x = _mm256_fmadd_ps(x,b,c);
	.loc 2 39 0 discriminator 2
	vmovaps	-2416(%rbp), %ymm0	# x, x.1_18
	vmovaps	%ymm0, -144(%rbp)	# x.1_18, __A
	vmovaps	-2352(%rbp), %ymm0	# b, tmp222
	vmovaps	%ymm0, -112(%rbp)	# tmp222, __B
	vmovaps	-2320(%rbp), %ymm0	# c, tmp223
	vmovaps	%ymm0, -80(%rbp)	# tmp223, __C
.LBB74:
.LBB75:
# /usr/lib/gcc/x86_64-linux-gnu/7/include/fmaintrin.h:66:                                              (__v8sf)__C);
	.file 5 "/usr/lib/gcc/x86_64-linux-gnu/7/include/fmaintrin.h"
	.loc 5 66 0 discriminator 2
	vmovaps	-112(%rbp), %ymm1	# __B, tmp224
	vmovaps	-80(%rbp), %ymm0	# __C, tmp225
	vfmadd231ps	-144(%rbp), %ymm1, %ymm0	# __A, tmp224, D.62042
.LBE75:
.LBE74:
# flop.cpp:39: 			x = _mm256_fmadd_ps(x,b,c);
	.loc 2 39 0 discriminator 2
	vmovaps	%ymm0, -2416(%rbp)	# D.62042, x
	vmovaps	-2384(%rbp), %ymm0	# y, tmp226
	vmovaps	%ymm0, -240(%rbp)	# tmp226, __A
	vmovaps	-2288(%rbp), %ymm0	# e, tmp227
	vmovaps	%ymm0, -208(%rbp)	# tmp227, __B
	vmovaps	-2256(%rbp), %ymm0	# f, tmp228
	vmovaps	%ymm0, -176(%rbp)	# tmp228, __C
.LBB76:
.LBB77:
# /usr/lib/gcc/x86_64-linux-gnu/7/include/fmaintrin.h:66:                                              (__v8sf)__C);
	.loc 5 66 0 discriminator 2
	vmovaps	-208(%rbp), %ymm1	# __B, tmp229
	vmovaps	-176(%rbp), %ymm0	# __C, tmp230
	vfmadd231ps	-240(%rbp), %ymm1, %ymm0	# __A, tmp229, D.62035
.LBE77:
.LBE76:
# flop.cpp:40: 			y = _mm256_fmadd_ps(y,e,f);
	.loc 2 40 0 discriminator 2
	vmovaps	%ymm0, -2384(%rbp)	# D.62035, y
# flop.cpp:42: 			v1 = _mm256_fmadd_ps(x,b,c);
	.loc 2 42 0 discriminator 2
	vmovaps	-2416(%rbp), %ymm0	# x, x.3_24
	vmovaps	%ymm0, -336(%rbp)	# x.3_24, __A
	vmovaps	-2352(%rbp), %ymm0	# b, tmp231
	vmovaps	%ymm0, -304(%rbp)	# tmp231, __B
	vmovaps	-2320(%rbp), %ymm0	# c, tmp232
	vmovaps	%ymm0, -272(%rbp)	# tmp232, __C
.LBB78:
.LBB79:
# /usr/lib/gcc/x86_64-linux-gnu/7/include/fmaintrin.h:66:                                              (__v8sf)__C);
	.loc 5 66 0 discriminator 2
	vmovaps	-304(%rbp), %ymm1	# __B, tmp233
	vmovaps	-272(%rbp), %ymm0	# __C, tmp234
	vfmadd231ps	-336(%rbp), %ymm1, %ymm0	# __A, tmp233, D.62028
.LBE79:
.LBE78:
# flop.cpp:42: 			v1 = _mm256_fmadd_ps(x,b,c);
	.loc 2 42 0 discriminator 2
	vmovaps	%ymm0, -2224(%rbp)	# D.62028, v1
	vmovaps	-2384(%rbp), %ymm0	# y, tmp235
	vmovaps	%ymm0, -432(%rbp)	# tmp235, __A
	vmovaps	-2288(%rbp), %ymm0	# e, tmp236
	vmovaps	%ymm0, -400(%rbp)	# tmp236, __B
	vmovaps	-2256(%rbp), %ymm0	# f, tmp237
	vmovaps	%ymm0, -368(%rbp)	# tmp237, __C
.LBB80:
.LBB81:
# /usr/lib/gcc/x86_64-linux-gnu/7/include/fmaintrin.h:66:                                              (__v8sf)__C);
	.loc 5 66 0 discriminator 2
	vmovaps	-400(%rbp), %ymm1	# __B, tmp238
	vmovaps	-368(%rbp), %ymm0	# __C, tmp239
	vfmadd231ps	-432(%rbp), %ymm1, %ymm0	# __A, tmp238, D.62021
.LBE81:
.LBE80:
# flop.cpp:43: 			v2 = _mm256_fmadd_ps(y,e,f);
	.loc 2 43 0 discriminator 2
	vmovaps	%ymm0, -2192(%rbp)	# D.62021, v2
# flop.cpp:45: 			v3 = _mm256_fmadd_ps(x,b,c);
	.loc 2 45 0 discriminator 2
	vmovaps	-2416(%rbp), %ymm0	# x, x.4_29
	vmovaps	%ymm0, -528(%rbp)	# x.4_29, __A
	vmovaps	-2352(%rbp), %ymm0	# b, tmp240
	vmovaps	%ymm0, -496(%rbp)	# tmp240, __B
	vmovaps	-2320(%rbp), %ymm0	# c, tmp241
	vmovaps	%ymm0, -464(%rbp)	# tmp241, __C
.LBB82:
.LBB83:
# /usr/lib/gcc/x86_64-linux-gnu/7/include/fmaintrin.h:66:                                              (__v8sf)__C);
	.loc 5 66 0 discriminator 2
	vmovaps	-496(%rbp), %ymm1	# __B, tmp242
	vmovaps	-464(%rbp), %ymm0	# __C, tmp243
	vfmadd231ps	-528(%rbp), %ymm1, %ymm0	# __A, tmp242, D.62014
.LBE83:
.LBE82:
# flop.cpp:45: 			v3 = _mm256_fmadd_ps(x,b,c);
	.loc 2 45 0 discriminator 2
	vmovaps	%ymm0, -2160(%rbp)	# D.62014, v3
	vmovaps	-2384(%rbp), %ymm0	# y, tmp244
	vmovaps	%ymm0, -624(%rbp)	# tmp244, __A
	vmovaps	-2288(%rbp), %ymm0	# e, tmp245
	vmovaps	%ymm0, -592(%rbp)	# tmp245, __B
	vmovaps	-2256(%rbp), %ymm0	# f, tmp246
	vmovaps	%ymm0, -560(%rbp)	# tmp246, __C
.LBB84:
.LBB85:
# /usr/lib/gcc/x86_64-linux-gnu/7/include/fmaintrin.h:66:                                              (__v8sf)__C);
	.loc 5 66 0 discriminator 2
	vmovaps	-592(%rbp), %ymm1	# __B, tmp247
	vmovaps	-560(%rbp), %ymm0	# __C, tmp248
	vfmadd231ps	-624(%rbp), %ymm1, %ymm0	# __A, tmp247, D.62007
.LBE85:
.LBE84:
# flop.cpp:46: 			v4 = _mm256_fmadd_ps(y,e,f);
	.loc 2 46 0 discriminator 2
	vmovaps	%ymm0, -2128(%rbp)	# D.62007, v4
# flop.cpp:48: 			v5 = _mm256_fmadd_ps(x,b,c);
	.loc 2 48 0 discriminator 2
	vmovaps	-2416(%rbp), %ymm0	# x, x.5_34
	vmovaps	%ymm0, -720(%rbp)	# x.5_34, __A
	vmovaps	-2352(%rbp), %ymm0	# b, tmp249
	vmovaps	%ymm0, -688(%rbp)	# tmp249, __B
	vmovaps	-2320(%rbp), %ymm0	# c, tmp250
	vmovaps	%ymm0, -656(%rbp)	# tmp250, __C
.LBB86:
.LBB87:
# /usr/lib/gcc/x86_64-linux-gnu/7/include/fmaintrin.h:66:                                              (__v8sf)__C);
	.loc 5 66 0 discriminator 2
	vmovaps	-688(%rbp), %ymm1	# __B, tmp251
	vmovaps	-656(%rbp), %ymm0	# __C, tmp252
	vfmadd231ps	-720(%rbp), %ymm1, %ymm0	# __A, tmp251, D.62000
.LBE87:
.LBE86:
# flop.cpp:48: 			v5 = _mm256_fmadd_ps(x,b,c);
	.loc 2 48 0 discriminator 2
	vmovaps	%ymm0, -2096(%rbp)	# D.62000, v5
	vmovaps	-2384(%rbp), %ymm0	# y, tmp253
	vmovaps	%ymm0, -816(%rbp)	# tmp253, __A
	vmovaps	-2288(%rbp), %ymm0	# e, tmp254
	vmovaps	%ymm0, -784(%rbp)	# tmp254, __B
	vmovaps	-2256(%rbp), %ymm0	# f, tmp255
	vmovaps	%ymm0, -752(%rbp)	# tmp255, __C
.LBB88:
.LBB89:
# /usr/lib/gcc/x86_64-linux-gnu/7/include/fmaintrin.h:66:                                              (__v8sf)__C);
	.loc 5 66 0 discriminator 2
	vmovaps	-784(%rbp), %ymm1	# __B, tmp256
	vmovaps	-752(%rbp), %ymm0	# __C, tmp257
	vfmadd231ps	-816(%rbp), %ymm1, %ymm0	# __A, tmp256, D.61993
.LBE89:
.LBE88:
# flop.cpp:49: 			v6 = _mm256_fmadd_ps(y,e,f);
	.loc 2 49 0 discriminator 2
	vmovaps	%ymm0, -2064(%rbp)	# D.61993, v6
# flop.cpp:51: 			v7 = _mm256_fmadd_ps(x,b,c);
	.loc 2 51 0 discriminator 2
	vmovaps	-2416(%rbp), %ymm0	# x, x.6_39
	vmovaps	%ymm0, -912(%rbp)	# x.6_39, __A
	vmovaps	-2352(%rbp), %ymm0	# b, tmp258
	vmovaps	%ymm0, -880(%rbp)	# tmp258, __B
	vmovaps	-2320(%rbp), %ymm0	# c, tmp259
	vmovaps	%ymm0, -848(%rbp)	# tmp259, __C
.LBB90:
.LBB91:
# /usr/lib/gcc/x86_64-linux-gnu/7/include/fmaintrin.h:66:                                              (__v8sf)__C);
	.loc 5 66 0 discriminator 2
	vmovaps	-880(%rbp), %ymm1	# __B, tmp260
	vmovaps	-848(%rbp), %ymm0	# __C, tmp261
	vfmadd231ps	-912(%rbp), %ymm1, %ymm0	# __A, tmp260, D.61986
.LBE91:
.LBE90:
# flop.cpp:51: 			v7 = _mm256_fmadd_ps(x,b,c);
	.loc 2 51 0 discriminator 2
	vmovaps	%ymm0, -2032(%rbp)	# D.61986, v7
	vmovaps	-2384(%rbp), %ymm0	# y, tmp262
	vmovaps	%ymm0, -1008(%rbp)	# tmp262, __A
	vmovaps	-2288(%rbp), %ymm0	# e, tmp263
	vmovaps	%ymm0, -976(%rbp)	# tmp263, __B
	vmovaps	-2256(%rbp), %ymm0	# f, tmp264
	vmovaps	%ymm0, -944(%rbp)	# tmp264, __C
.LBB92:
.LBB93:
# /usr/lib/gcc/x86_64-linux-gnu/7/include/fmaintrin.h:66:                                              (__v8sf)__C);
	.loc 5 66 0 discriminator 2
	vmovaps	-976(%rbp), %ymm1	# __B, tmp265
	vmovaps	-944(%rbp), %ymm0	# __C, tmp266
	vfmadd231ps	-1008(%rbp), %ymm1, %ymm0	# __A, tmp265, D.61979
.LBE93:
.LBE92:
# flop.cpp:52: 			v8 = _mm256_fmadd_ps(y,e,f);
	.loc 2 52 0 discriminator 2
	vmovaps	%ymm0, -2000(%rbp)	# D.61979, v8
# flop.cpp:54: 			x = _mm256_fmadd_ps(x,b,c);
	.loc 2 54 0 discriminator 2
	vmovaps	-2416(%rbp), %ymm0	# x, x.7_44
	vmovaps	%ymm0, -1104(%rbp)	# x.7_44, __A
	vmovaps	-2352(%rbp), %ymm0	# b, tmp267
	vmovaps	%ymm0, -1072(%rbp)	# tmp267, __B
	vmovaps	-2320(%rbp), %ymm0	# c, tmp268
	vmovaps	%ymm0, -1040(%rbp)	# tmp268, __C
.LBB94:
.LBB95:
# /usr/lib/gcc/x86_64-linux-gnu/7/include/fmaintrin.h:66:                                              (__v8sf)__C);
	.loc 5 66 0 discriminator 2
	vmovaps	-1072(%rbp), %ymm1	# __B, tmp269
	vmovaps	-1040(%rbp), %ymm0	# __C, tmp270
	vfmadd231ps	-1104(%rbp), %ymm1, %ymm0	# __A, tmp269, D.61972
.LBE95:
.LBE94:
# flop.cpp:54: 			x = _mm256_fmadd_ps(x,b,c);
	.loc 2 54 0 discriminator 2
	vmovaps	%ymm0, -2416(%rbp)	# D.61972, x
	vmovaps	-2384(%rbp), %ymm0	# y, tmp271
	vmovaps	%ymm0, -1200(%rbp)	# tmp271, __A
	vmovaps	-2288(%rbp), %ymm0	# e, tmp272
	vmovaps	%ymm0, -1168(%rbp)	# tmp272, __B
	vmovaps	-2256(%rbp), %ymm0	# f, tmp273
	vmovaps	%ymm0, -1136(%rbp)	# tmp273, __C
.LBB96:
.LBB97:
# /usr/lib/gcc/x86_64-linux-gnu/7/include/fmaintrin.h:66:                                              (__v8sf)__C);
	.loc 5 66 0 discriminator 2
	vmovaps	-1168(%rbp), %ymm1	# __B, tmp274
	vmovaps	-1136(%rbp), %ymm0	# __C, tmp275
	vfmadd231ps	-1200(%rbp), %ymm1, %ymm0	# __A, tmp274, D.61965
.LBE97:
.LBE96:
# flop.cpp:55: 			y = _mm256_fmadd_ps(y,e,f);
	.loc 2 55 0 discriminator 2
	vmovaps	%ymm0, -2384(%rbp)	# D.61965, y
# flop.cpp:57: 			v1 = _mm256_fmadd_ps(x,b,c);
	.loc 2 57 0 discriminator 2
	vmovaps	-2416(%rbp), %ymm0	# x, x.9_50
	vmovaps	%ymm0, -1296(%rbp)	# x.9_50, __A
	vmovaps	-2352(%rbp), %ymm0	# b, tmp276
	vmovaps	%ymm0, -1264(%rbp)	# tmp276, __B
	vmovaps	-2320(%rbp), %ymm0	# c, tmp277
	vmovaps	%ymm0, -1232(%rbp)	# tmp277, __C
.LBB98:
.LBB99:
# /usr/lib/gcc/x86_64-linux-gnu/7/include/fmaintrin.h:66:                                              (__v8sf)__C);
	.loc 5 66 0 discriminator 2
	vmovaps	-1264(%rbp), %ymm1	# __B, tmp278
	vmovaps	-1232(%rbp), %ymm0	# __C, tmp279
	vfmadd231ps	-1296(%rbp), %ymm1, %ymm0	# __A, tmp278, D.61958
.LBE99:
.LBE98:
# flop.cpp:57: 			v1 = _mm256_fmadd_ps(x,b,c);
	.loc 2 57 0 discriminator 2
	vmovaps	%ymm0, -2224(%rbp)	# D.61958, v1
	vmovaps	-2384(%rbp), %ymm0	# y, tmp280
	vmovaps	%ymm0, -1392(%rbp)	# tmp280, __A
	vmovaps	-2288(%rbp), %ymm0	# e, tmp281
	vmovaps	%ymm0, -1360(%rbp)	# tmp281, __B
	vmovaps	-2256(%rbp), %ymm0	# f, tmp282
	vmovaps	%ymm0, -1328(%rbp)	# tmp282, __C
.LBB100:
.LBB101:
# /usr/lib/gcc/x86_64-linux-gnu/7/include/fmaintrin.h:66:                                              (__v8sf)__C);
	.loc 5 66 0 discriminator 2
	vmovaps	-1360(%rbp), %ymm1	# __B, tmp283
	vmovaps	-1328(%rbp), %ymm0	# __C, tmp284
	vfmadd231ps	-1392(%rbp), %ymm1, %ymm0	# __A, tmp283, D.61951
.LBE101:
.LBE100:
# flop.cpp:58: 			v2 = _mm256_fmadd_ps(y,e,f);
	.loc 2 58 0 discriminator 2
	vmovaps	%ymm0, -2192(%rbp)	# D.61951, v2
# flop.cpp:60: 			v3 = _mm256_fmadd_ps(x,b,c);
	.loc 2 60 0 discriminator 2
	vmovaps	-2416(%rbp), %ymm0	# x, x.10_55
	vmovaps	%ymm0, -1488(%rbp)	# x.10_55, __A
	vmovaps	-2352(%rbp), %ymm0	# b, tmp285
	vmovaps	%ymm0, -1456(%rbp)	# tmp285, __B
	vmovaps	-2320(%rbp), %ymm0	# c, tmp286
	vmovaps	%ymm0, -1424(%rbp)	# tmp286, __C
.LBB102:
.LBB103:
# /usr/lib/gcc/x86_64-linux-gnu/7/include/fmaintrin.h:66:                                              (__v8sf)__C);
	.loc 5 66 0 discriminator 2
	vmovaps	-1456(%rbp), %ymm1	# __B, tmp287
	vmovaps	-1424(%rbp), %ymm0	# __C, tmp288
	vfmadd231ps	-1488(%rbp), %ymm1, %ymm0	# __A, tmp287, D.61944
.LBE103:
.LBE102:
# flop.cpp:60: 			v3 = _mm256_fmadd_ps(x,b,c);
	.loc 2 60 0 discriminator 2
	vmovaps	%ymm0, -2160(%rbp)	# D.61944, v3
	vmovaps	-2384(%rbp), %ymm0	# y, tmp289
	vmovaps	%ymm0, -1584(%rbp)	# tmp289, __A
	vmovaps	-2288(%rbp), %ymm0	# e, tmp290
	vmovaps	%ymm0, -1552(%rbp)	# tmp290, __B
	vmovaps	-2256(%rbp), %ymm0	# f, tmp291
	vmovaps	%ymm0, -1520(%rbp)	# tmp291, __C
.LBB104:
.LBB105:
# /usr/lib/gcc/x86_64-linux-gnu/7/include/fmaintrin.h:66:                                              (__v8sf)__C);
	.loc 5 66 0 discriminator 2
	vmovaps	-1552(%rbp), %ymm1	# __B, tmp292
	vmovaps	-1520(%rbp), %ymm0	# __C, tmp293
	vfmadd231ps	-1584(%rbp), %ymm1, %ymm0	# __A, tmp292, D.61937
.LBE105:
.LBE104:
# flop.cpp:61: 			v4 = _mm256_fmadd_ps(y,e,f);
	.loc 2 61 0 discriminator 2
	vmovaps	%ymm0, -2128(%rbp)	# D.61937, v4
# flop.cpp:63: 			v5 = _mm256_fmadd_ps(x,b,c);
	.loc 2 63 0 discriminator 2
	vmovaps	-2416(%rbp), %ymm0	# x, x.11_60
	vmovaps	%ymm0, -1680(%rbp)	# x.11_60, __A
	vmovaps	-2352(%rbp), %ymm0	# b, tmp294
	vmovaps	%ymm0, -1648(%rbp)	# tmp294, __B
	vmovaps	-2320(%rbp), %ymm0	# c, tmp295
	vmovaps	%ymm0, -1616(%rbp)	# tmp295, __C
.LBB106:
.LBB107:
# /usr/lib/gcc/x86_64-linux-gnu/7/include/fmaintrin.h:66:                                              (__v8sf)__C);
	.loc 5 66 0 discriminator 2
	vmovaps	-1648(%rbp), %ymm1	# __B, tmp296
	vmovaps	-1616(%rbp), %ymm0	# __C, tmp297
	vfmadd231ps	-1680(%rbp), %ymm1, %ymm0	# __A, tmp296, D.61930
.LBE107:
.LBE106:
# flop.cpp:63: 			v5 = _mm256_fmadd_ps(x,b,c);
	.loc 2 63 0 discriminator 2
	vmovaps	%ymm0, -2096(%rbp)	# D.61930, v5
	vmovaps	-2384(%rbp), %ymm0	# y, tmp298
	vmovaps	%ymm0, -1776(%rbp)	# tmp298, __A
	vmovaps	-2288(%rbp), %ymm0	# e, tmp299
	vmovaps	%ymm0, -1744(%rbp)	# tmp299, __B
	vmovaps	-2256(%rbp), %ymm0	# f, tmp300
	vmovaps	%ymm0, -1712(%rbp)	# tmp300, __C
.LBB108:
.LBB109:
# /usr/lib/gcc/x86_64-linux-gnu/7/include/fmaintrin.h:66:                                              (__v8sf)__C);
	.loc 5 66 0 discriminator 2
	vmovaps	-1744(%rbp), %ymm1	# __B, tmp301
	vmovaps	-1712(%rbp), %ymm0	# __C, tmp302
	vfmadd231ps	-1776(%rbp), %ymm1, %ymm0	# __A, tmp301, D.61923
.LBE109:
.LBE108:
# flop.cpp:64: 			v6 = _mm256_fmadd_ps(y,e,f);
	.loc 2 64 0 discriminator 2
	vmovaps	%ymm0, -2064(%rbp)	# D.61923, v6
# flop.cpp:66: 			v7 = _mm256_fmadd_ps(x,b,c);
	.loc 2 66 0 discriminator 2
	vmovaps	-2416(%rbp), %ymm0	# x, x.12_65
	vmovaps	%ymm0, -1872(%rbp)	# x.12_65, __A
	vmovaps	-2352(%rbp), %ymm0	# b, tmp303
	vmovaps	%ymm0, -1840(%rbp)	# tmp303, __B
	vmovaps	-2320(%rbp), %ymm0	# c, tmp304
	vmovaps	%ymm0, -1808(%rbp)	# tmp304, __C
.LBB110:
.LBB111:
# /usr/lib/gcc/x86_64-linux-gnu/7/include/fmaintrin.h:66:                                              (__v8sf)__C);
	.loc 5 66 0 discriminator 2
	vmovaps	-1840(%rbp), %ymm1	# __B, tmp305
	vmovaps	-1808(%rbp), %ymm0	# __C, tmp306
	vfmadd231ps	-1872(%rbp), %ymm1, %ymm0	# __A, tmp305, D.61916
.LBE111:
.LBE110:
# flop.cpp:66: 			v7 = _mm256_fmadd_ps(x,b,c);
	.loc 2 66 0 discriminator 2
	vmovaps	%ymm0, -2032(%rbp)	# D.61916, v7
	vmovaps	-2384(%rbp), %ymm0	# y, tmp307
	vmovaps	%ymm0, -1968(%rbp)	# tmp307, __A
	vmovaps	-2288(%rbp), %ymm0	# e, tmp308
	vmovaps	%ymm0, -1936(%rbp)	# tmp308, __B
	vmovaps	-2256(%rbp), %ymm0	# f, tmp309
	vmovaps	%ymm0, -1904(%rbp)	# tmp309, __C
.LBB112:
.LBB113:
# /usr/lib/gcc/x86_64-linux-gnu/7/include/fmaintrin.h:66:                                              (__v8sf)__C);
	.loc 5 66 0 discriminator 2
	vmovaps	-1936(%rbp), %ymm1	# __B, tmp310
	vmovaps	-1904(%rbp), %ymm0	# __C, tmp311
	vfmadd231ps	-1968(%rbp), %ymm1, %ymm0	# __A, tmp310, D.61909
.LBE113:
.LBE112:
# flop.cpp:67: 			v8 = _mm256_fmadd_ps(y,e,f);
	.loc 2 67 0 discriminator 2
	vmovaps	%ymm0, -2000(%rbp)	# D.61909, v8
# flop.cpp:38: 		for(uint64_t i=0;i<n;i=i+10){
	.loc 2 38 0 discriminator 2
	addq	$10, -2432(%rbp)	#, i
	jmp	.L57	#
.L59:
.LBE114:
.LBE115:
# flop.cpp:21: #pragma omp parallel 
	.loc 2 21 0
	call	__stack_chk_fail@PLT	#
.L58:
	addq	$2568, %rsp	#,
	popq	%r10	#
	.cfi_def_cfa 10, 0
	popq	%rbp	#
	leaq	-8(%r10), %rsp	#,
	.cfi_def_cfa 7, 8
	ret
	.cfi_endproc
.LFE5707:
	.globl	__gxx_personality_v0
	.section	.gcc_except_table,"a",@progbits
.LLSDA5707:
	.byte	0xff
	.byte	0xff
	.byte	0x1
	.uleb128 .LLSDACSE5707-.LLSDACSB5707
.LLSDACSB5707:
.LLSDACSE5707:
	.text
	.size	main._omp_fn.0, .-main._omp_fn.0
	.section	.rodata
	.align 8
.LC0:
	.long	0
	.long	1104006501
	.align 4
.LC6:
	.long	1036831949
	.align 4
.LC7:
	.long	1063675494
	.align 4
.LC8:
	.long	1058642330
	.align 4
.LC9:
	.long	1053609165
	.align 4
.LC10:
	.long	1045220557
	.text
.Letext0:
	.file 6 "/usr/include/c++/7/cstdlib"
	.file 7 "/usr/include/c++/7/cwchar"
	.file 8 "/usr/include/c++/7/new"
	.file 9 "/usr/include/c++/7/bits/exception_ptr.h"
	.file 10 "/usr/include/c++/7/type_traits"
	.file 11 "/usr/include/x86_64-linux-gnu/c++/7/bits/c++config.h"
	.file 12 "/usr/include/c++/7/bits/cpp_type_traits.h"
	.file 13 "/usr/include/c++/7/bits/stl_pair.h"
	.file 14 "/usr/include/c++/7/debug/debug.h"
	.file 15 "/usr/include/c++/7/bits/char_traits.h"
	.file 16 "/usr/include/c++/7/cstdint"
	.file 17 "/usr/include/c++/7/clocale"
	.file 18 "/usr/include/c++/7/cstdio"
	.file 19 "/usr/include/c++/7/system_error"
	.file 20 "/usr/include/c++/7/bits/ios_base.h"
	.file 21 "/usr/include/c++/7/cwctype"
	.file 22 "/usr/include/c++/7/iosfwd"
	.file 23 "/usr/include/c++/7/ctime"
	.file 24 "<built-in>"
	.file 25 "/usr/include/c++/7/ratio"
	.file 26 "/usr/include/c++/7/bits/predefined_ops.h"
	.file 27 "/usr/include/c++/7/ext/new_allocator.h"
	.file 28 "/usr/include/c++/7/ext/numeric_traits.h"
	.file 29 "/usr/lib/gcc/x86_64-linux-gnu/7/include/stddef.h"
	.file 30 "/usr/include/stdlib.h"
	.file 31 "/usr/include/x86_64-linux-gnu/bits/types.h"
	.file 32 "/usr/include/x86_64-linux-gnu/bits/types/clock_t.h"
	.file 33 "/usr/include/x86_64-linux-gnu/bits/types/time_t.h"
	.file 34 "/usr/include/x86_64-linux-gnu/bits/stdint-intn.h"
	.file 35 "/usr/include/c++/7/stdlib.h"
	.file 36 "/usr/include/x86_64-linux-gnu/bits/types/wint_t.h"
	.file 37 "/usr/include/x86_64-linux-gnu/bits/types/__mbstate_t.h"
	.file 38 "/usr/include/x86_64-linux-gnu/bits/types/mbstate_t.h"
	.file 39 "/usr/include/x86_64-linux-gnu/bits/types/__FILE.h"
	.file 40 "/usr/include/x86_64-linux-gnu/bits/libio.h"
	.file 41 "/usr/include/x86_64-linux-gnu/bits/types/FILE.h"
	.file 42 "/usr/include/wchar.h"
	.file 43 "/usr/include/x86_64-linux-gnu/bits/types/struct_tm.h"
	.file 44 "/usr/include/x86_64-linux-gnu/bits/stdint-uintn.h"
	.file 45 "/usr/include/stdint.h"
	.file 46 "/usr/include/locale.h"
	.file 47 "/usr/include/time.h"
	.file 48 "/usr/include/x86_64-linux-gnu/c++/7/bits/atomic_word.h"
	.file 49 "/usr/include/x86_64-linux-gnu/bits/_G_config.h"
	.file 50 "/usr/include/stdio.h"
	.file 51 "/usr/include/x86_64-linux-gnu/bits/sys_errlist.h"
	.file 52 "/usr/include/errno.h"
	.file 53 "/usr/include/x86_64-linux-gnu/bits/wctype-wchar.h"
	.file 54 "/usr/include/wctype.h"
	.section	.data.rel.local.DW.ref.__gxx_personality_v0,"awG",@progbits,DW.ref.__gxx_personality_v0,comdat
	.align 8
	.type	DW.ref.__gxx_personality_v0, @object
	.size	DW.ref.__gxx_personality_v0, 8
DW.ref.__gxx_personality_v0:
	.quad	__gxx_personality_v0
	.hidden	__dso_handle
	.ident	"GCC: (Ubuntu 7.4.0-1ubuntu1~18.04.1) 7.4.0"
	.section	.note.GNU-stack,"",@progbits
