	.file	"iops.cpp"
# GNU C++11 (Ubuntu 7.4.0-1ubuntu1~18.04.1) version 7.4.0 (x86_64-linux-gnu)
#	compiled by GNU C version 7.4.0, GMP version 6.1.2, MPFR version 4.0.1, MPC version 1.1.0, isl version isl-0.19-GMP

# GGC heuristics: --param ggc-min-expand=100 --param ggc-min-heapsize=131072
# options passed:  -imultiarch x86_64-linux-gnu -D_GNU_SOURCE -D_REENTRANT
# iops.cpp --param l1-cache-size=32 --param l1-cache-line-size=64
# --param l2-cache-size=8192 -mtune=generic -march=haswell -g -std=c++11
# -fopenmp -fverbose-asm -fstack-protector-strong -Wformat
# -Wformat-security
# options enabled:  -fPIC -fPIE -faggressive-loop-optimizations
# -fasynchronous-unwind-tables -fauto-inc-dec -fchkp-check-incomplete-type
# -fchkp-check-read -fchkp-check-write -fchkp-instrument-calls
# -fchkp-narrow-bounds -fchkp-optimize -fchkp-store-bounds
# -fchkp-use-static-bounds -fchkp-use-static-const-bounds
# -fchkp-use-wrappers -fcommon -fdelete-null-pointer-checks
# -fdwarf2-cfi-asm -fearly-inlining -feliminate-unused-debug-types
# -fexceptions -ffp-int-builtin-inexact -ffunction-cse -fgcse-lm
# -fgnu-runtime -fgnu-unique -fident -finline-atomics -fira-hoist-pressure
# -fira-share-save-slots -fira-share-spill-slots -fivopts
# -fkeep-static-consts -fleading-underscore -flifetime-dse
# -flto-odr-type-merging -fmath-errno -fmerge-debug-strings -fpeephole
# -fplt -fprefetch-loop-arrays -freg-struct-return
# -fsched-critical-path-heuristic -fsched-dep-count-heuristic
# -fsched-group-heuristic -fsched-interblock -fsched-last-insn-heuristic
# -fsched-rank-heuristic -fsched-spec -fsched-spec-insn-heuristic
# -fsched-stalled-insns-dep -fschedule-fusion -fsemantic-interposition
# -fshow-column -fshrink-wrap-separate -fsigned-zeros
# -fsplit-ivs-in-unroller -fssa-backprop -fstack-protector-strong
# -fstdarg-opt -fstrict-volatile-bitfields -fsync-libcalls -ftrapping-math
# -ftree-cselim -ftree-forwprop -ftree-loop-if-convert -ftree-loop-im
# -ftree-loop-ivcanon -ftree-loop-optimize -ftree-parallelize-loops=
# -ftree-phiprop -ftree-reassoc -ftree-scev-cprop -funit-at-a-time
# -funwind-tables -fverbose-asm -fzero-initialized-in-bss
# -m128bit-long-double -m64 -m80387 -maes -malign-stringops -mavx -mavx2
# -mavx256-split-unaligned-load -mavx256-split-unaligned-store -mbmi -mbmi2
# -mcx16 -mf16c -mfancy-math-387 -mfma -mfp-ret-in-387 -mfsgsbase -mfxsr
# -mglibc -mhle -mieee-fp -mlong-double-80 -mlzcnt -mmmx -mmovbe -mpclmul
# -mpopcnt -mpush-args -mrdrnd -mred-zone -msahf -msse -msse2 -msse3 -msse4
# -msse4.1 -msse4.2 -mssse3 -mstv -mtls-direct-seg-refs -mvzeroupper
# -mxsave -mxsaveopt

	.text
.Ltext0:
	.section	.rodata
	.type	_ZStL19piecewise_construct, @object
	.size	_ZStL19piecewise_construct, 1
_ZStL19piecewise_construct:
	.zero	1
	.local	_ZStL8__ioinit
	.comm	_ZStL8__ioinit,1,1
	.section	.text._ZNSt6chrono8durationIlSt5ratioILl1ELl1000000000EEEC1IlvEERKT_,"axG",@progbits,_ZNSt6chrono8durationIlSt5ratioILl1ELl1000000000EEEC1IlvEERKT_,comdat
	.align 2
	.weak	_ZNSt6chrono8durationIlSt5ratioILl1ELl1000000000EEEC1IlvEERKT_
	.type	_ZNSt6chrono8durationIlSt5ratioILl1ELl1000000000EEEC1IlvEERKT_, @function
_ZNSt6chrono8durationIlSt5ratioILl1ELl1000000000EEEC1IlvEERKT_:
.LFB5343:
	.file 1 "/usr/include/c++/7/chrono"
	.loc 1 327 0
	.cfi_startproc
	pushq	%rbp	#
	.cfi_def_cfa_offset 16
	.cfi_offset 6, -16
	movq	%rsp, %rbp	#,
	.cfi_def_cfa_register 6
	movq	%rdi, -8(%rbp)	# this, this
	movq	%rsi, -16(%rbp)	# __rep, __rep
.LBB70:
# /usr/include/c++/7/chrono:328: 	  : __r(static_cast<rep>(__rep)) { }
	.loc 1 328 0
	movq	-16(%rbp), %rax	# __rep, tmp88
	movq	(%rax), %rdx	# *__rep_5(D), _1
	movq	-8(%rbp), %rax	# this, tmp89
	movq	%rdx, (%rax)	# _1, this_3(D)->__r
.LBE70:
	nop
	popq	%rbp	#
	.cfi_def_cfa 7, 8
	ret
	.cfi_endproc
.LFE5343:
	.size	_ZNSt6chrono8durationIlSt5ratioILl1ELl1000000000EEEC1IlvEERKT_, .-_ZNSt6chrono8durationIlSt5ratioILl1ELl1000000000EEEC1IlvEERKT_
	.section	.text._ZNKSt6chrono8durationIlSt5ratioILl1ELl1000000000EEE5countEv,"axG",@progbits,_ZNKSt6chrono8durationIlSt5ratioILl1ELl1000000000EEE5countEv,comdat
	.align 2
	.weak	_ZNKSt6chrono8durationIlSt5ratioILl1ELl1000000000EEE5countEv
	.type	_ZNKSt6chrono8durationIlSt5ratioILl1ELl1000000000EEE5countEv, @function
_ZNKSt6chrono8durationIlSt5ratioILl1ELl1000000000EEE5countEv:
.LFB5347:
	.loc 1 342 0
	.cfi_startproc
	pushq	%rbp	#
	.cfi_def_cfa_offset 16
	.cfi_offset 6, -16
	movq	%rsp, %rbp	#,
	.cfi_def_cfa_register 6
	movq	%rdi, -8(%rbp)	# this, this
# /usr/include/c++/7/chrono:343: 	{ return __r; }
	.loc 1 343 0
	movq	-8(%rbp), %rax	# this, tmp89
	movq	(%rax), %rax	# this_2(D)->__r, _3
	popq	%rbp	#
	.cfi_def_cfa 7, 8
	ret
	.cfi_endproc
.LFE5347:
	.size	_ZNKSt6chrono8durationIlSt5ratioILl1ELl1000000000EEE5countEv, .-_ZNKSt6chrono8durationIlSt5ratioILl1ELl1000000000EEE5countEv
	.section	.text._ZNKSt6chrono10time_pointINS_3_V212system_clockENS_8durationIlSt5ratioILl1ELl1000000000EEEEE16time_since_epochEv,"axG",@progbits,_ZNKSt6chrono10time_pointINS_3_V212system_clockENS_8durationIlSt5ratioILl1ELl1000000000EEEEE16time_since_epochEv,comdat
	.align 2
	.weak	_ZNKSt6chrono10time_pointINS_3_V212system_clockENS_8durationIlSt5ratioILl1ELl1000000000EEEEE16time_since_epochEv
	.type	_ZNKSt6chrono10time_pointINS_3_V212system_clockENS_8durationIlSt5ratioILl1ELl1000000000EEEEE16time_since_epochEv, @function
_ZNKSt6chrono10time_pointINS_3_V212system_clockENS_8durationIlSt5ratioILl1ELl1000000000EEEEE16time_since_epochEv:
.LFB5349:
	.loc 1 639 0
	.cfi_startproc
	pushq	%rbp	#
	.cfi_def_cfa_offset 16
	.cfi_offset 6, -16
	movq	%rsp, %rbp	#,
	.cfi_def_cfa_register 6
	movq	%rdi, -8(%rbp)	# this, this
# /usr/include/c++/7/chrono:640: 	{ return __d; }
	.loc 1 640 0
	movq	-8(%rbp), %rax	# this, tmp89
	movq	(%rax), %rax	# this_2(D)->__d, D.61780
	popq	%rbp	#
	.cfi_def_cfa 7, 8
	ret
	.cfi_endproc
.LFE5349:
	.size	_ZNKSt6chrono10time_pointINS_3_V212system_clockENS_8durationIlSt5ratioILl1ELl1000000000EEEEE16time_since_epochEv, .-_ZNKSt6chrono10time_pointINS_3_V212system_clockENS_8durationIlSt5ratioILl1ELl1000000000EEEEE16time_since_epochEv
	.section	.text._ZNSt6chronomiIlSt5ratioILl1ELl1000000000EElS2_EENSt11common_typeIJNS_8durationIT_T0_EENS4_IT1_T2_EEEE4typeERKS7_RKSA_,"axG",@progbits,_ZNSt6chronomiIlSt5ratioILl1ELl1000000000EElS2_EENSt11common_typeIJNS_8durationIT_T0_EENS4_IT1_T2_EEEE4typeERKS7_RKSA_,comdat
	.weak	_ZNSt6chronomiIlSt5ratioILl1ELl1000000000EElS2_EENSt11common_typeIJNS_8durationIT_T0_EENS4_IT1_T2_EEEE4typeERKS7_RKSA_
	.type	_ZNSt6chronomiIlSt5ratioILl1ELl1000000000EElS2_EENSt11common_typeIJNS_8durationIT_T0_EENS4_IT1_T2_EEEE4typeERKS7_RKSA_, @function
_ZNSt6chronomiIlSt5ratioILl1ELl1000000000EElS2_EENSt11common_typeIJNS_8durationIT_T0_EENS4_IT1_T2_EEEE4typeERKS7_RKSA_:
.LFB5372:
	.loc 1 459 0
	.cfi_startproc
	pushq	%rbp	#
	.cfi_def_cfa_offset 16
	.cfi_offset 6, -16
	movq	%rsp, %rbp	#,
	.cfi_def_cfa_register 6
	pushq	%rbx	#
	subq	$72, %rsp	#,
	.cfi_offset 3, -24
	movq	%rdi, -72(%rbp)	# __lhs, __lhs
	movq	%rsi, -80(%rbp)	# __rhs, __rhs
# /usr/include/c++/7/chrono:459:       operator-(const duration<_Rep1, _Period1>& __lhs,
	.loc 1 459 0
	movq	%fs:40, %rax	#, tmp101
	movq	%rax, -24(%rbp)	# tmp101, D.62033
	xorl	%eax, %eax	# tmp101
# /usr/include/c++/7/chrono:465: 	return __cd(__cd(__lhs).count() - __cd(__rhs).count());
	.loc 1 465 0
	movq	-72(%rbp), %rax	# __lhs, tmp92
	movq	(%rax), %rax	# *__lhs_5(D), tmp93
	movq	%rax, -56(%rbp)	# tmp93, D.58698
	leaq	-56(%rbp), %rax	#, tmp94
	movq	%rax, %rdi	# tmp94,
	call	_ZNKSt6chrono8durationIlSt5ratioILl1ELl1000000000EEE5countEv	#
	movq	%rax, %rbx	#, _1
	movq	-80(%rbp), %rax	# __rhs, tmp95
	movq	(%rax), %rax	# *__rhs_8(D), tmp96
	movq	%rax, -48(%rbp)	# tmp96, D.58699
	leaq	-48(%rbp), %rax	#, tmp97
	movq	%rax, %rdi	# tmp97,
	call	_ZNKSt6chrono8durationIlSt5ratioILl1ELl1000000000EEE5countEv	#
	subq	%rax, %rbx	# _2, _1
	movq	%rbx, %rax	# _1, _3
	movq	%rax, -40(%rbp)	# _3, D.58700
	leaq	-40(%rbp), %rdx	#, tmp98
	leaq	-32(%rbp), %rax	#, tmp99
	movq	%rdx, %rsi	# tmp98,
	movq	%rax, %rdi	# tmp99,
	call	_ZNSt6chrono8durationIlSt5ratioILl1ELl1000000000EEEC1IlvEERKT_	#
	movq	-32(%rbp), %rax	# D.58701, D.61782
# /usr/include/c++/7/chrono:466:       }
	.loc 1 466 0
	movq	-24(%rbp), %rcx	# D.62033, tmp102
	xorq	%fs:40, %rcx	#, tmp102
	je	.L8	#,
	call	__stack_chk_fail@PLT	#
.L8:
	addq	$72, %rsp	#,
	popq	%rbx	#
	popq	%rbp	#
	.cfi_def_cfa 7, 8
	ret
	.cfi_endproc
.LFE5372:
	.size	_ZNSt6chronomiIlSt5ratioILl1ELl1000000000EElS2_EENSt11common_typeIJNS_8durationIT_T0_EENS4_IT1_T2_EEEE4typeERKS7_RKSA_, .-_ZNSt6chronomiIlSt5ratioILl1ELl1000000000EElS2_EENSt11common_typeIJNS_8durationIT_T0_EENS4_IT1_T2_EEEE4typeERKS7_RKSA_
	.section	.text._ZNSt6chronomiINS_3_V212system_clockENS_8durationIlSt5ratioILl1ELl1000000000EEEES6_EENSt11common_typeIJT0_T1_EE4typeERKNS_10time_pointIT_S8_EERKNSC_ISD_S9_EE,"axG",@progbits,_ZNSt6chronomiINS_3_V212system_clockENS_8durationIlSt5ratioILl1ELl1000000000EEEES6_EENSt11common_typeIJT0_T1_EE4typeERKNS_10time_pointIT_S8_EERKNSC_ISD_S9_EE,comdat
	.weak	_ZNSt6chronomiINS_3_V212system_clockENS_8durationIlSt5ratioILl1ELl1000000000EEEES6_EENSt11common_typeIJT0_T1_EE4typeERKNS_10time_pointIT_S8_EERKNSC_ISD_S9_EE
	.type	_ZNSt6chronomiINS_3_V212system_clockENS_8durationIlSt5ratioILl1ELl1000000000EEEES6_EENSt11common_typeIJT0_T1_EE4typeERKNS_10time_pointIT_S8_EERKNSC_ISD_S9_EE, @function
_ZNSt6chronomiINS_3_V212system_clockENS_8durationIlSt5ratioILl1ELl1000000000EEEES6_EENSt11common_typeIJT0_T1_EE4typeERKNS_10time_pointIT_S8_EERKNSC_ISD_S9_EE:
.LFB5371:
	.loc 1 752 0
	.cfi_startproc
	pushq	%rbp	#
	.cfi_def_cfa_offset 16
	.cfi_offset 6, -16
	movq	%rsp, %rbp	#,
	.cfi_def_cfa_register 6
	subq	$48, %rsp	#,
	movq	%rdi, -40(%rbp)	# __lhs, __lhs
	movq	%rsi, -48(%rbp)	# __rhs, __rhs
# /usr/include/c++/7/chrono:752:       operator-(const time_point<_Clock, _Dur1>& __lhs,
	.loc 1 752 0
	movq	%fs:40, %rax	#, tmp98
	movq	%rax, -8(%rbp)	# tmp98, D.62035
	xorl	%eax, %eax	# tmp98
# /usr/include/c++/7/chrono:754:       { return __lhs.time_since_epoch() - __rhs.time_since_epoch(); }
	.loc 1 754 0
	movq	-48(%rbp), %rax	# __rhs, tmp89
	movq	%rax, %rdi	# tmp89,
	call	_ZNKSt6chrono10time_pointINS_3_V212system_clockENS_8durationIlSt5ratioILl1ELl1000000000EEEEE16time_since_epochEv	#
	movq	%rax, -16(%rbp)	# tmp91, D.58689
	movq	-40(%rbp), %rax	# __lhs, tmp92
	movq	%rax, %rdi	# tmp92,
	call	_ZNKSt6chrono10time_pointINS_3_V212system_clockENS_8durationIlSt5ratioILl1ELl1000000000EEEEE16time_since_epochEv	#
	movq	%rax, -24(%rbp)	# tmp94, D.58688
	leaq	-16(%rbp), %rdx	#, tmp95
	leaq	-24(%rbp), %rax	#, tmp96
	movq	%rdx, %rsi	# tmp95,
	movq	%rax, %rdi	# tmp96,
	call	_ZNSt6chronomiIlSt5ratioILl1ELl1000000000EElS2_EENSt11common_typeIJNS_8durationIT_T0_EENS4_IT1_T2_EEEE4typeERKS7_RKSA_	#
	movq	-8(%rbp), %rcx	# D.62035, tmp99
	xorq	%fs:40, %rcx	#, tmp99
	je	.L11	#,
	call	__stack_chk_fail@PLT	#
.L11:
	leave
	.cfi_def_cfa 7, 8
	ret
	.cfi_endproc
.LFE5371:
	.size	_ZNSt6chronomiINS_3_V212system_clockENS_8durationIlSt5ratioILl1ELl1000000000EEEES6_EENSt11common_typeIJT0_T1_EE4typeERKNS_10time_pointIT_S8_EERKNSC_ISD_S9_EE, .-_ZNSt6chronomiINS_3_V212system_clockENS_8durationIlSt5ratioILl1ELl1000000000EEEES6_EENSt11common_typeIJT0_T1_EE4typeERKNS_10time_pointIT_S8_EERKNSC_ISD_S9_EE
	.section	.text._ZNSt6chrono8durationIdSt5ratioILl1ELl1EEEC1IdvEERKT_,"axG",@progbits,_ZNSt6chrono8durationIdSt5ratioILl1ELl1EEEC1IdvEERKT_,comdat
	.align 2
	.weak	_ZNSt6chrono8durationIdSt5ratioILl1ELl1EEEC1IdvEERKT_
	.type	_ZNSt6chrono8durationIdSt5ratioILl1ELl1EEEC1IdvEERKT_, @function
_ZNSt6chrono8durationIdSt5ratioILl1ELl1EEEC1IdvEERKT_:
.LFB5378:
	.loc 1 327 0
	.cfi_startproc
	pushq	%rbp	#
	.cfi_def_cfa_offset 16
	.cfi_offset 6, -16
	movq	%rsp, %rbp	#,
	.cfi_def_cfa_register 6
	movq	%rdi, -8(%rbp)	# this, this
	movq	%rsi, -16(%rbp)	# __rep, __rep
.LBB71:
# /usr/include/c++/7/chrono:328: 	  : __r(static_cast<rep>(__rep)) { }
	.loc 1 328 0
	movq	-16(%rbp), %rax	# __rep, tmp88
	vmovsd	(%rax), %xmm0	# *__rep_5(D), _1
	movq	-8(%rbp), %rax	# this, tmp89
	vmovsd	%xmm0, (%rax)	# _1, this_3(D)->__r
.LBE71:
	nop
	popq	%rbp	#
	.cfi_def_cfa 7, 8
	ret
	.cfi_endproc
.LFE5378:
	.size	_ZNSt6chrono8durationIdSt5ratioILl1ELl1EEEC1IdvEERKT_, .-_ZNSt6chrono8durationIdSt5ratioILl1ELl1EEEC1IdvEERKT_
	.section	.text._ZNSt6chrono20__duration_cast_implINS_8durationIdSt5ratioILl1ELl1EEEES2_ILl1ELl1000000000EEdLb1ELb0EE6__castIlS5_EES4_RKNS1_IT_T0_EE,"axG",@progbits,_ZNSt6chrono20__duration_cast_implINS_8durationIdSt5ratioILl1ELl1EEEES2_ILl1ELl1000000000EEdLb1ELb0EE6__castIlS5_EES4_RKNS1_IT_T0_EE,comdat
	.weak	_ZNSt6chrono20__duration_cast_implINS_8durationIdSt5ratioILl1ELl1EEEES2_ILl1ELl1000000000EEdLb1ELb0EE6__castIlS5_EES4_RKNS1_IT_T0_EE
	.type	_ZNSt6chrono20__duration_cast_implINS_8durationIdSt5ratioILl1ELl1EEEES2_ILl1ELl1000000000EEdLb1ELb0EE6__castIlS5_EES4_RKNS1_IT_T0_EE, @function
_ZNSt6chrono20__duration_cast_implINS_8durationIdSt5ratioILl1ELl1EEEES2_ILl1ELl1000000000EEdLb1ELb0EE6__castIlS5_EES4_RKNS1_IT_T0_EE:
.LFB5375:
	.loc 1 159 0
	.cfi_startproc
	pushq	%rbp	#
	.cfi_def_cfa_offset 16
	.cfi_offset 6, -16
	movq	%rsp, %rbp	#,
	.cfi_def_cfa_register 6
	subq	$48, %rsp	#,
	movq	%rdi, -40(%rbp)	# __d, __d
# /usr/include/c++/7/chrono:159: 	  __cast(const duration<_Rep, _Period>& __d)
	.loc 1 159 0
	movq	%fs:40, %rax	#, tmp97
	movq	%rax, -8(%rbp)	# tmp97, D.62036
	xorl	%eax, %eax	# tmp97
# /usr/include/c++/7/chrono:163: 	      static_cast<_CR>(__d.count()) / static_cast<_CR>(_CF::den)));
	.loc 1 163 0
	movq	-40(%rbp), %rax	# __d, tmp92
	movq	%rax, %rdi	# tmp92,
	call	_ZNKSt6chrono8durationIlSt5ratioILl1ELl1000000000EEE5countEv	#
	vcvtsi2sdq	%rax, %xmm0, %xmm0	# _1, _2
	vmovsd	.LC0(%rip), %xmm1	#, tmp93
	vdivsd	%xmm1, %xmm0, %xmm0	# tmp93, _2, _3
	vmovsd	%xmm0, -24(%rbp)	# _3, D.58966
	leaq	-24(%rbp), %rdx	#, tmp94
	leaq	-16(%rbp), %rax	#, tmp95
	movq	%rdx, %rsi	# tmp94,
	movq	%rax, %rdi	# tmp95,
	call	_ZNSt6chrono8durationIdSt5ratioILl1ELl1EEEC1IdvEERKT_	#
	vmovsd	-16(%rbp), %xmm0	# D.58967, D.61792
# /usr/include/c++/7/chrono:164: 	  }
	.loc 1 164 0
	movq	-8(%rbp), %rax	# D.62036, tmp98
	xorq	%fs:40, %rax	#, tmp98
	je	.L15	#,
	call	__stack_chk_fail@PLT	#
.L15:
	leave
	.cfi_def_cfa 7, 8
	ret
	.cfi_endproc
.LFE5375:
	.size	_ZNSt6chrono20__duration_cast_implINS_8durationIdSt5ratioILl1ELl1EEEES2_ILl1ELl1000000000EEdLb1ELb0EE6__castIlS5_EES4_RKNS1_IT_T0_EE, .-_ZNSt6chrono20__duration_cast_implINS_8durationIdSt5ratioILl1ELl1EEEES2_ILl1ELl1000000000EEdLb1ELb0EE6__castIlS5_EES4_RKNS1_IT_T0_EE
	.section	.text._ZNSt6chrono13duration_castINS_8durationIdSt5ratioILl1ELl1EEEElS2_ILl1ELl1000000000EEEENSt9enable_ifIXsrNS_13__is_durationIT_EE5valueES8_E4typeERKNS1_IT0_T1_EE,"axG",@progbits,_ZNSt6chrono13duration_castINS_8durationIdSt5ratioILl1ELl1EEEElS2_ILl1ELl1000000000EEEENSt9enable_ifIXsrNS_13__is_durationIT_EE5valueES8_E4typeERKNS1_IT0_T1_EE,comdat
	.weak	_ZNSt6chrono13duration_castINS_8durationIdSt5ratioILl1ELl1EEEElS2_ILl1ELl1000000000EEEENSt9enable_ifIXsrNS_13__is_durationIT_EE5valueES8_E4typeERKNS1_IT0_T1_EE
	.type	_ZNSt6chrono13duration_castINS_8durationIdSt5ratioILl1ELl1EEEElS2_ILl1ELl1000000000EEEENSt9enable_ifIXsrNS_13__is_durationIT_EE5valueES8_E4typeERKNS1_IT0_T1_EE, @function
_ZNSt6chrono13duration_castINS_8durationIdSt5ratioILl1ELl1EEEElS2_ILl1ELl1000000000EEEENSt9enable_ifIXsrNS_13__is_durationIT_EE5valueES8_E4typeERKNS1_IT0_T1_EE:
.LFB5374:
	.loc 1 194 0
	.cfi_startproc
	pushq	%rbp	#
	.cfi_def_cfa_offset 16
	.cfi_offset 6, -16
	movq	%rsp, %rbp	#,
	.cfi_def_cfa_register 6
	subq	$16, %rsp	#,
	movq	%rdi, -8(%rbp)	# __d, __d
# /usr/include/c++/7/chrono:203: 	return __dc::__cast(__d);
	.loc 1 203 0
	movq	-8(%rbp), %rax	# __d, tmp89
	movq	%rax, %rdi	# tmp89,
	call	_ZNSt6chrono20__duration_cast_implINS_8durationIdSt5ratioILl1ELl1EEEES2_ILl1ELl1000000000EEdLb1ELb0EE6__castIlS5_EES4_RKNS1_IT_T0_EE	#
	vmovq	%xmm0, %rax	#, D.61790
	movq	%rax, -16(%rbp)	# D.61790, %sfp
	vmovsd	-16(%rbp), %xmm0	# %sfp, <retval>
# /usr/include/c++/7/chrono:204:       }
	.loc 1 204 0
	leave
	.cfi_def_cfa 7, 8
	ret
	.cfi_endproc
.LFE5374:
	.size	_ZNSt6chrono13duration_castINS_8durationIdSt5ratioILl1ELl1EEEElS2_ILl1ELl1000000000EEEENSt9enable_ifIXsrNS_13__is_durationIT_EE5valueES8_E4typeERKNS1_IT0_T1_EE, .-_ZNSt6chrono13duration_castINS_8durationIdSt5ratioILl1ELl1EEEElS2_ILl1ELl1000000000EEEENSt9enable_ifIXsrNS_13__is_durationIT_EE5valueES8_E4typeERKNS1_IT0_T1_EE
	.section	.text._ZNSt6chrono8durationIdSt5ratioILl1ELl1EEEC1IlS1_ILl1ELl1000000000EEvEERKNS0_IT_T0_EE,"axG",@progbits,_ZNSt6chrono8durationIdSt5ratioILl1ELl1EEEC1IlS1_ILl1ELl1000000000EEvEERKNS0_IT_T0_EE,comdat
	.align 2
	.weak	_ZNSt6chrono8durationIdSt5ratioILl1ELl1EEEC1IlS1_ILl1ELl1000000000EEvEERKNS0_IT_T0_EE
	.type	_ZNSt6chrono8durationIdSt5ratioILl1ELl1EEEC1IlS1_ILl1ELl1000000000EEvEERKNS0_IT_T0_EE, @function
_ZNSt6chrono8durationIdSt5ratioILl1ELl1EEEC1IlS1_ILl1ELl1000000000EEvEERKNS0_IT_T0_EE:
.LFB5380:
	.loc 1 334 0
	.cfi_startproc
	pushq	%rbp	#
	.cfi_def_cfa_offset 16
	.cfi_offset 6, -16
	movq	%rsp, %rbp	#,
	.cfi_def_cfa_register 6
	subq	$48, %rsp	#,
	movq	%rdi, -24(%rbp)	# this, this
	movq	%rsi, -32(%rbp)	# __d, __d
# /usr/include/c++/7/chrono:334: 	  constexpr duration(const duration<_Rep2, _Period2>& __d)
	.loc 1 334 0
	movq	%fs:40, %rax	#, tmp93
	movq	%rax, -8(%rbp)	# tmp93, D.62038
	xorl	%eax, %eax	# tmp93
.LBB72:
# /usr/include/c++/7/chrono:335: 	  : __r(duration_cast<duration>(__d).count()) { }
	.loc 1 335 0
	movq	-32(%rbp), %rax	# __d, tmp88
	movq	%rax, %rdi	# tmp88,
	call	_ZNSt6chrono13duration_castINS_8durationIdSt5ratioILl1ELl1EEEElS2_ILl1ELl1000000000EEEENSt9enable_ifIXsrNS_13__is_durationIT_EE5valueES8_E4typeERKNS1_IT0_T1_EE	#
	vmovq	%xmm0, %rax	#, tmp89
	movq	%rax, -40(%rbp)	# tmp89, %sfp
	vmovsd	-40(%rbp), %xmm0	# %sfp, tmp90
	vmovsd	%xmm0, -16(%rbp)	# tmp90, D.58978
	leaq	-16(%rbp), %rax	#, tmp91
	movq	%rax, %rdi	# tmp91,
	call	_ZNKSt6chrono8durationIdSt5ratioILl1ELl1EEE5countEv	#
	vmovq	%xmm0, %rdx	#, _1
	movq	-24(%rbp), %rax	# this, tmp92
	movq	%rdx, (%rax)	# _1, this_3(D)->__r
.LBE72:
	nop
	movq	-8(%rbp), %rax	# D.62038, tmp94
	xorq	%fs:40, %rax	#, tmp94
	je	.L19	#,
	call	__stack_chk_fail@PLT	#
.L19:
	leave
	.cfi_def_cfa 7, 8
	ret
	.cfi_endproc
.LFE5380:
	.size	_ZNSt6chrono8durationIdSt5ratioILl1ELl1EEEC1IlS1_ILl1ELl1000000000EEvEERKNS0_IT_T0_EE, .-_ZNSt6chrono8durationIdSt5ratioILl1ELl1EEEC1IlS1_ILl1ELl1000000000EEvEERKNS0_IT_T0_EE
	.section	.text._ZNKSt6chrono8durationIdSt5ratioILl1ELl1EEE5countEv,"axG",@progbits,_ZNKSt6chrono8durationIdSt5ratioILl1ELl1EEE5countEv,comdat
	.align 2
	.weak	_ZNKSt6chrono8durationIdSt5ratioILl1ELl1EEE5countEv
	.type	_ZNKSt6chrono8durationIdSt5ratioILl1ELl1EEE5countEv, @function
_ZNKSt6chrono8durationIdSt5ratioILl1ELl1EEE5countEv:
.LFB5381:
	.loc 1 342 0
	.cfi_startproc
	pushq	%rbp	#
	.cfi_def_cfa_offset 16
	.cfi_offset 6, -16
	movq	%rsp, %rbp	#,
	.cfi_def_cfa_register 6
	movq	%rdi, -8(%rbp)	# this, this
# /usr/include/c++/7/chrono:343: 	{ return __r; }
	.loc 1 343 0
	movq	-8(%rbp), %rax	# this, tmp89
	vmovsd	(%rax), %xmm0	# this_2(D)->__r, _3
	popq	%rbp	#
	.cfi_def_cfa 7, 8
	ret
	.cfi_endproc
.LFE5381:
	.size	_ZNKSt6chrono8durationIdSt5ratioILl1ELl1EEE5countEv, .-_ZNKSt6chrono8durationIdSt5ratioILl1ELl1EEE5countEv
	.section	.rodata
.LC1:
	.string	"\nNumber of loops:"
.LC2:
	.string	"\nNumber of Threads"
	.align 8
.LC3:
	.string	" \nExecution time for parallel Code:"
.LC4:
	.string	" \nNumber of Mega Iops "
.LC5:
	.string	" \nNumber of Giga Iops "
	.text
	.globl	main
	.type	main, @function
main:
.LFB5367:
	.file 2 "iops.cpp"
	.loc 2 9 0
	.cfi_startproc
	leaq	8(%rsp), %r10	#,
	.cfi_def_cfa 10, 0
	andq	$-32, %rsp	#,
	pushq	-8(%r10)	#
	pushq	%rbp	#
	.cfi_escape 0x10,0x6,0x2,0x76,0
	movq	%rsp, %rbp	#,
	pushq	%r10	#
	.cfi_escape 0xf,0x3,0x76,0x78,0x6
	pushq	%rbx	#
	subq	$160, %rsp	#,
	.cfi_escape 0x10,0x3,0x2,0x76,0x70
	movl	%edi, -148(%rbp)	# argc, argc
	movq	%rsi, -160(%rbp)	# argv, argv
# iops.cpp:9: {
	.loc 2 9 0
	movq	%fs:40, %rax	#, tmp149
	movq	%rax, -24(%rbp)	# tmp149, D.62040
	xorl	%eax, %eax	# tmp149
# iops.cpp:14:  	chrono::time_point<std::chrono::system_clock> start, end;
	.loc 2 14 0
	movq	$0, -128(%rbp)	#, start.__d.__r
	movq	$0, -120(%rbp)	#, end.__d.__r
# iops.cpp:18: 	n = 1000000000;
	.loc 2 18 0
	movq	$1000000000, -96(%rbp)	#, n
# iops.cpp:20: 	start = chrono::system_clock::now();
	.loc 2 20 0
	call	_ZNSt6chrono3_V212system_clock3nowEv@PLT	#
	movq	%rax, -128(%rbp)	# tmp113, start
.LBB73:
# iops.cpp:21: #pragma omp parallel 
	.loc 2 21 0
	movq	-96(%rbp), %rax	# n, tmp114
	movq	%rax, -80(%rbp)	# tmp114, .omp_data_o.13.n
	movl	-132(%rbp), %eax	# num_threads, tmp115
	movl	%eax, -72(%rbp)	# tmp115, .omp_data_o.13.num_threads
	leaq	-80(%rbp), %rax	#, tmp116
	movl	$0, %ecx	#,
	movl	$0, %edx	#,
	movq	%rax, %rsi	# tmp116,
	leaq	main._omp_fn.0(%rip), %rdi	#,
	call	GOMP_parallel@PLT	#
	movl	-72(%rbp), %eax	# .omp_data_o.13.num_threads, tmp117
	movl	%eax, -132(%rbp)	# tmp117, num_threads
.LBE73:
# iops.cpp:91: 	end = chrono::system_clock::now();
	.loc 2 91 0
	call	_ZNSt6chrono3_V212system_clock3nowEv@PLT	#
	movq	%rax, -120(%rbp)	# tmp119, end
# iops.cpp:93: 	elapsed = end - start;
	.loc 2 93 0
	leaq	-128(%rbp), %rdx	#, tmp120
	leaq	-120(%rbp), %rax	#, tmp121
	movq	%rdx, %rsi	# tmp120,
	movq	%rax, %rdi	# tmp121,
	call	_ZNSt6chronomiINS_3_V212system_clockENS_8durationIlSt5ratioILl1ELl1000000000EEEES6_EENSt11common_typeIJT0_T1_EE4typeERKNS_10time_pointIT_S8_EERKNSC_ISD_S9_EE	#
	movq	%rax, -104(%rbp)	# tmp123, D.58677
	leaq	-104(%rbp), %rdx	#, tmp124
	leaq	-80(%rbp), %rax	#, tmp125
	movq	%rdx, %rsi	# tmp124,
	movq	%rax, %rdi	# tmp125,
	call	_ZNSt6chrono8durationIdSt5ratioILl1ELl1EEEC1IlS1_ILl1ELl1000000000EEvEERKNS0_IT_T0_EE	#
	vmovsd	-80(%rbp), %xmm0	# D.58709, tmp126
	vmovsd	%xmm0, -112(%rbp)	# tmp126, elapsed
# iops.cpp:95: 	iops = num_threads * 1 * 2 * (n/10)*8 /(1024*1024);
	.loc 2 95 0
	movl	-132(%rbp), %eax	# num_threads, tmp127
	movslq	%eax, %rcx	# tmp127, _1
	movq	-96(%rbp), %rax	# n, tmp128
	movabsq	$-3689348814741910323, %rdx	#, tmp130
	mulq	%rdx	# tmp130
	movq	%rdx, %rax	# tmp129, tmp129
	shrq	$3, %rax	#, tmp129
	imulq	%rcx, %rax	# _1, _3
	salq	$4, %rax	#, _4
	shrq	$20, %rax	#, _5
	movq	%rax, -88(%rbp)	# _5, iops
# iops.cpp:97: 	iops += num_threads * 2 * (n/10)/(1024*1024) ;
	.loc 2 97 0
	movl	-132(%rbp), %eax	# num_threads, tmp131
	addl	%eax, %eax	# _6
	movslq	%eax, %rcx	# _6, _7
	movq	-96(%rbp), %rax	# n, tmp132
	movabsq	$-3689348814741910323, %rdx	#, tmp134
	mulq	%rdx	# tmp134
	movq	%rdx, %rax	# tmp133, tmp133
	shrq	$3, %rax	#, tmp133
	imulq	%rcx, %rax	# _7, _9
	shrq	$20, %rax	#, _9
	movq	%rax, %rdx	# _9, _10
	movq	-88(%rbp), %rax	# iops, iops.11_11
	addq	%rdx, %rax	# _10, _12
	movq	%rax, -88(%rbp)	# _12, iops
# iops.cpp:99: 	iops = iops / (elapsed.count());
	.loc 2 99 0
	vcvtsi2sdq	-88(%rbp), %xmm1, %xmm1	# iops, _13
	vmovsd	%xmm1, -168(%rbp)	# _13, %sfp
	leaq	-112(%rbp), %rax	#, tmp135
	movq	%rax, %rdi	# tmp135,
	call	_ZNKSt6chrono8durationIdSt5ratioILl1ELl1EEE5countEv	#
	vmovsd	-168(%rbp), %xmm1	# %sfp, _13
	vdivsd	%xmm0, %xmm1, %xmm0	# _14, _13, _15
	vcvttsd2siq	%xmm0, %rax	# _15, tmp136
	movq	%rax, -88(%rbp)	# tmp136, iops
# iops.cpp:101: 	cout<<"\nNumber of loops:"<<n/10;
	.loc 2 101 0
	leaq	.LC1(%rip), %rsi	#,
	leaq	_ZSt4cout(%rip), %rdi	#,
	call	_ZStlsISt11char_traitsIcEERSt13basic_ostreamIcT_ES5_PKc@PLT	#
	movq	%rax, %rcx	#, _16
	movq	-96(%rbp), %rax	# n, tmp137
	movabsq	$-3689348814741910323, %rdx	#, tmp139
	mulq	%rdx	# tmp139
	movq	%rdx, %rax	# tmp138, tmp138
	shrq	$3, %rax	#, tmp138
	movq	%rax, %rsi	# _17,
	movq	%rcx, %rdi	# _16,
	call	_ZNSolsEm@PLT	#
# iops.cpp:102: 	cout<<"\nNumber of Threads"<<num_threads;
	.loc 2 102 0
	leaq	.LC2(%rip), %rsi	#,
	leaq	_ZSt4cout(%rip), %rdi	#,
	call	_ZStlsISt11char_traitsIcEERSt13basic_ostreamIcT_ES5_PKc@PLT	#
	movq	%rax, %rdx	#, _18
	movl	-132(%rbp), %eax	# num_threads, tmp140
	movl	%eax, %esi	# tmp140,
	movq	%rdx, %rdi	# _18,
	call	_ZNSolsEi@PLT	#
# iops.cpp:103: 	cout<<" \nExecution time for parallel Code:"<<elapsed.count();
	.loc 2 103 0
	leaq	.LC3(%rip), %rsi	#,
	leaq	_ZSt4cout(%rip), %rdi	#,
	call	_ZStlsISt11char_traitsIcEERSt13basic_ostreamIcT_ES5_PKc@PLT	#
	movq	%rax, %rbx	#, _19
	leaq	-112(%rbp), %rax	#, tmp141
	movq	%rax, %rdi	# tmp141,
	call	_ZNKSt6chrono8durationIdSt5ratioILl1ELl1EEE5countEv	#
	movq	%rbx, %rdi	# _19,
	call	_ZNSolsEd@PLT	#
# iops.cpp:104: 	cout<<" \nNumber of Mega Iops "<<iops;
	.loc 2 104 0
	leaq	.LC4(%rip), %rsi	#,
	leaq	_ZSt4cout(%rip), %rdi	#,
	call	_ZStlsISt11char_traitsIcEERSt13basic_ostreamIcT_ES5_PKc@PLT	#
	movq	%rax, %rdx	#, _21
	movq	-88(%rbp), %rax	# iops, tmp142
	movq	%rax, %rsi	# tmp142,
	movq	%rdx, %rdi	# _21,
	call	_ZNSolsEl@PLT	#
# iops.cpp:105: 	cout<<" \nNumber of Giga Iops "<<iops/1024;
	.loc 2 105 0
	leaq	.LC5(%rip), %rsi	#,
	leaq	_ZSt4cout(%rip), %rdi	#,
	call	_ZStlsISt11char_traitsIcEERSt13basic_ostreamIcT_ES5_PKc@PLT	#
	movq	%rax, %rcx	#, _22
	movq	-88(%rbp), %rax	# iops, tmp143
	leaq	1023(%rax), %rdx	#, tmp145
	testq	%rax, %rax	# tmp144
	cmovs	%rdx, %rax	# tmp145,, tmp144
	sarq	$10, %rax	#, tmp146
	movq	%rax, %rsi	# _23,
	movq	%rcx, %rdi	# _22,
	call	_ZNSolsEl@PLT	#
# iops.cpp:106: 	return 0;
	.loc 2 106 0
	movl	$0, %eax	#, _62
# iops.cpp:107: }
	.loc 2 107 0
	movq	-24(%rbp), %rbx	# D.62040, tmp153
	xorq	%fs:40, %rbx	#, tmp153
	je	.L24	#,
	call	__stack_chk_fail@PLT	#
.L24:
	addq	$160, %rsp	#,
	popq	%rbx	#
	popq	%r10	#
	.cfi_def_cfa 10, 0
	popq	%rbp	#
	leaq	-8(%r10), %rsp	#,
	.cfi_def_cfa 7, 8
	ret
	.cfi_endproc
.LFE5367:
	.size	main, .-main
	.type	_Z41__static_initialization_and_destruction_0ii, @function
_Z41__static_initialization_and_destruction_0ii:
.LFB5705:
	.loc 2 107 0
	.cfi_startproc
	pushq	%rbp	#
	.cfi_def_cfa_offset 16
	.cfi_offset 6, -16
	movq	%rsp, %rbp	#,
	.cfi_def_cfa_register 6
	subq	$16, %rsp	#,
	movl	%edi, -4(%rbp)	# __initialize_p, __initialize_p
	movl	%esi, -8(%rbp)	# __priority, __priority
# iops.cpp:107: }
	.loc 2 107 0
	cmpl	$1, -4(%rbp)	#, __initialize_p
	jne	.L27	#,
# iops.cpp:107: }
	.loc 2 107 0 is_stmt 0 discriminator 1
	cmpl	$65535, -8(%rbp)	#, __priority
	jne	.L27	#,
# /usr/include/c++/7/iostream:74:   static ios_base::Init __ioinit;
	.file 3 "/usr/include/c++/7/iostream"
	.loc 3 74 0 is_stmt 1
	leaq	_ZStL8__ioinit(%rip), %rdi	#,
	call	_ZNSt8ios_base4InitC1Ev@PLT	#
	leaq	__dso_handle(%rip), %rdx	#,
	leaq	_ZStL8__ioinit(%rip), %rsi	#,
	movq	_ZNSt8ios_base4InitD1Ev@GOTPCREL(%rip), %rax	#, tmp87
	movq	%rax, %rdi	# tmp87,
	call	__cxa_atexit@PLT	#
.L27:
# iops.cpp:107: }
	.loc 2 107 0
	nop
	leave
	.cfi_def_cfa 7, 8
	ret
	.cfi_endproc
.LFE5705:
	.size	_Z41__static_initialization_and_destruction_0ii, .-_Z41__static_initialization_and_destruction_0ii
	.type	_GLOBAL__sub_I_main, @function
_GLOBAL__sub_I_main:
.LFB5706:
	.loc 2 107 0
	.cfi_startproc
	pushq	%rbp	#
	.cfi_def_cfa_offset 16
	.cfi_offset 6, -16
	movq	%rsp, %rbp	#,
	.cfi_def_cfa_register 6
# iops.cpp:107: }
	.loc 2 107 0
	movl	$65535, %esi	#,
	movl	$1, %edi	#,
	call	_Z41__static_initialization_and_destruction_0ii	#
	popq	%rbp	#
	.cfi_def_cfa 7, 8
	ret
	.cfi_endproc
.LFE5706:
	.size	_GLOBAL__sub_I_main, .-_GLOBAL__sub_I_main
	.section	.init_array,"aw"
	.align 8
	.quad	_GLOBAL__sub_I_main
	.section	.rodata
.LC6:
	.string	"\nvalues of v1:["
.LC7:
	.string	"]"
	.text
	.type	main._omp_fn.0, @function
main._omp_fn.0:
.LFB5707:
	.loc 2 21 0
	.cfi_startproc
	.cfi_personality 0x9b,DW.ref.__gxx_personality_v0
	.cfi_lsda 0x1b,.LLSDA5707
	leaq	8(%rsp), %r10	#,
	.cfi_def_cfa 10, 0
	andq	$-32, %rsp	#,
	pushq	-8(%r10)	#
	pushq	%rbp	#
	.cfi_escape 0x10,0x6,0x2,0x76,0
	movq	%rsp, %rbp	#,
	pushq	%r10	#
	.cfi_escape 0xf,0x3,0x76,0x78,0x6
	subq	$1864, %rsp	#,
	movq	%rdi, -1864(%rbp)	# .omp_data_i, .omp_data_i
# iops.cpp:21: #pragma omp parallel 
	.loc 2 21 0
	movq	%fs:40, %rax	#, tmp320
	movq	%rax, -24(%rbp)	# tmp320, D.62046
	xorl	%eax, %eax	# tmp320
	movq	-1864(%rbp), %rax	# .omp_data_i, tmp188
	movq	(%rax), %rax	# .omp_data_i_7(D)->n, tmp189
	movq	%rax, -1592(%rbp)	# tmp189, n
	movl	$1, -1664(%rbp)	#, __A
	movl	$2, -1660(%rbp)	#, __B
	movl	$1, -1656(%rbp)	#, __C
	movl	$2, -1652(%rbp)	#, __D
	movl	$1, -1648(%rbp)	#, __E
	movl	$2, -1644(%rbp)	#, __F
	movl	$1, -1640(%rbp)	#, __G
	movl	$2, -1636(%rbp)	#, __H
	movl	-1636(%rbp), %eax	# __H, tmp190
	movl	%eax, -1632(%rbp)	# tmp190, __A
	movl	-1640(%rbp), %eax	# __G, tmp191
	movl	%eax, -1628(%rbp)	# tmp191, __B
	movl	-1644(%rbp), %eax	# __F, tmp192
	movl	%eax, -1624(%rbp)	# tmp192, __C
	movl	-1648(%rbp), %eax	# __E, tmp193
	movl	%eax, -1620(%rbp)	# tmp193, __D
	movl	-1652(%rbp), %eax	# __D, tmp194
	movl	%eax, -1616(%rbp)	# tmp194, __E
	movl	-1656(%rbp), %eax	# __C, tmp195
	movl	%eax, -1612(%rbp)	# tmp195, __F
	movl	-1660(%rbp), %eax	# __B, tmp196
	movl	%eax, -1608(%rbp)	# tmp196, __G
	movl	-1664(%rbp), %eax	# __A, tmp197
	movl	%eax, -1604(%rbp)	# tmp197, __H
.LBB74:
.LBB75:
.LBB76:
.LBB77:
.LBB78:
# /usr/lib/gcc/x86_64-linux-gnu/7/include/avxintrin.h:1260:   return __extension__ (__m256i)(__v8si){ __H, __G, __F, __E,
	.file 4 "/usr/lib/gcc/x86_64-linux-gnu/7/include/avxintrin.h"
	.loc 4 1260 0
	movl	-1632(%rbp), %eax	# __A, tmp200
	vmovd	-1628(%rbp), %xmm0	# __B, tmp201
	vpinsrd	$1, %eax, %xmm0, %xmm2	# tmp200, tmp201, tmp199
	movl	-1624(%rbp), %eax	# __C, tmp203
	vmovd	-1620(%rbp), %xmm0	# __D, tmp204
	vpinsrd	$1, %eax, %xmm0, %xmm1	# tmp203, tmp204, tmp202
	movl	-1616(%rbp), %eax	# __E, tmp206
	vmovd	-1612(%rbp), %xmm0	# __F, tmp207
	vpinsrd	$1, %eax, %xmm0, %xmm3	# tmp206, tmp207, tmp205
	movl	-1608(%rbp), %eax	# __G, tmp209
	vmovd	-1604(%rbp), %xmm0	# __H, tmp210
	vpinsrd	$1, %eax, %xmm0, %xmm0	# tmp209, tmp210, tmp208
	vpunpcklqdq	%xmm3, %xmm0, %xmm0	# tmp205, tmp208, tmp211
	vpunpcklqdq	%xmm2, %xmm1, %xmm1	# tmp199, tmp202, tmp212
	vinserti128	$0x1, %xmm1, %ymm0, %ymm0	# tmp212, tmp211, tmp198
.LBE78:
.LBE77:
.LBE76:
.LBE75:
# iops.cpp:23: 		__m256i b = _mm256_setr_epi32(1,2,1,2,1,2,1,2);
	.loc 2 23 0
	vmovdqa	%ymm0, -1456(%rbp)	# D.61928, b
.LBB79:
.LBB80:
# /usr/lib/gcc/x86_64-linux-gnu/7/include/avxintrin.h:1236:   return __extension__ (__m256i)(__v4di){ 0, 0, 0, 0 };
	.loc 4 1236 0
	vpxor	%xmm0, %xmm0, %xmm0	# D.61908
.LBE80:
.LBE79:
# iops.cpp:24: 		__m256i a = _mm256_setzero_si256();
	.loc 2 24 0
	vmovdqa	%ymm0, -1584(%rbp)	# D.61908, a
	movl	$2, -1728(%rbp)	#, __A
	movl	$1, -1724(%rbp)	#, __B
	movl	$2, -1720(%rbp)	#, __C
	movl	$1, -1716(%rbp)	#, __D
	movl	$2, -1712(%rbp)	#, __E
	movl	$1, -1708(%rbp)	#, __F
	movl	$2, -1704(%rbp)	#, __G
	movl	$1, -1700(%rbp)	#, __H
	movl	-1700(%rbp), %eax	# __H, tmp213
	movl	%eax, -1696(%rbp)	# tmp213, __A
	movl	-1704(%rbp), %eax	# __G, tmp214
	movl	%eax, -1692(%rbp)	# tmp214, __B
	movl	-1708(%rbp), %eax	# __F, tmp215
	movl	%eax, -1688(%rbp)	# tmp215, __C
	movl	-1712(%rbp), %eax	# __E, tmp216
	movl	%eax, -1684(%rbp)	# tmp216, __D
	movl	-1716(%rbp), %eax	# __D, tmp217
	movl	%eax, -1680(%rbp)	# tmp217, __E
	movl	-1720(%rbp), %eax	# __C, tmp218
	movl	%eax, -1676(%rbp)	# tmp218, __F
	movl	-1724(%rbp), %eax	# __B, tmp219
	movl	%eax, -1672(%rbp)	# tmp219, __G
	movl	-1728(%rbp), %eax	# __A, tmp220
	movl	%eax, -1668(%rbp)	# tmp220, __H
.LBB81:
.LBB82:
.LBB83:
.LBB84:
# /usr/lib/gcc/x86_64-linux-gnu/7/include/avxintrin.h:1260:   return __extension__ (__m256i)(__v8si){ __H, __G, __F, __E,
	.loc 4 1260 0
	movl	-1696(%rbp), %eax	# __A, tmp223
	vmovd	-1692(%rbp), %xmm0	# __B, tmp224
	vpinsrd	$1, %eax, %xmm0, %xmm2	# tmp223, tmp224, tmp222
	movl	-1688(%rbp), %eax	# __C, tmp226
	vmovd	-1684(%rbp), %xmm0	# __D, tmp227
	vpinsrd	$1, %eax, %xmm0, %xmm1	# tmp226, tmp227, tmp225
	movl	-1680(%rbp), %eax	# __E, tmp229
	vmovd	-1676(%rbp), %xmm0	# __F, tmp230
	vpinsrd	$1, %eax, %xmm0, %xmm3	# tmp229, tmp230, tmp228
	movl	-1672(%rbp), %eax	# __G, tmp232
	vmovd	-1668(%rbp), %xmm0	# __H, tmp233
	vpinsrd	$1, %eax, %xmm0, %xmm0	# tmp232, tmp233, tmp231
	vpunpcklqdq	%xmm3, %xmm0, %xmm0	# tmp228, tmp231, tmp234
	vpunpcklqdq	%xmm2, %xmm1, %xmm1	# tmp222, tmp225, tmp235
	vinserti128	$0x1, %xmm1, %ymm0, %ymm0	# tmp235, tmp234, tmp221
.LBE84:
.LBE83:
.LBE82:
.LBE81:
# iops.cpp:25: 		__m256i d = _mm256_setr_epi32(2,1,2,1,2,1,2,1);
	.loc 2 25 0
	vmovdqa	%ymm0, -1424(%rbp)	# D.61903, d
.LBB85:
.LBB86:
# /usr/lib/gcc/x86_64-linux-gnu/7/include/avxintrin.h:1236:   return __extension__ (__m256i)(__v4di){ 0, 0, 0, 0 };
	.loc 4 1236 0
	vpxor	%xmm0, %xmm0, %xmm0	# D.61883
.LBE86:
.LBE85:
# iops.cpp:26: 		__m256i c = _mm256_setzero_si256();
	.loc 2 26 0
	vmovdqa	%ymm0, -1552(%rbp)	# D.61883, c
	movl	$1, -1792(%rbp)	#, __A
	movl	$2, -1788(%rbp)	#, __B
	movl	$1, -1784(%rbp)	#, __C
	movl	$2, -1780(%rbp)	#, __D
	movl	$1, -1776(%rbp)	#, __E
	movl	$2, -1772(%rbp)	#, __F
	movl	$1, -1768(%rbp)	#, __G
	movl	$2, -1764(%rbp)	#, __H
	movl	-1764(%rbp), %eax	# __H, tmp236
	movl	%eax, -1760(%rbp)	# tmp236, __A
	movl	-1768(%rbp), %eax	# __G, tmp237
	movl	%eax, -1756(%rbp)	# tmp237, __B
	movl	-1772(%rbp), %eax	# __F, tmp238
	movl	%eax, -1752(%rbp)	# tmp238, __C
	movl	-1776(%rbp), %eax	# __E, tmp239
	movl	%eax, -1748(%rbp)	# tmp239, __D
	movl	-1780(%rbp), %eax	# __D, tmp240
	movl	%eax, -1744(%rbp)	# tmp240, __E
	movl	-1784(%rbp), %eax	# __C, tmp241
	movl	%eax, -1740(%rbp)	# tmp241, __F
	movl	-1788(%rbp), %eax	# __B, tmp242
	movl	%eax, -1736(%rbp)	# tmp242, __G
	movl	-1792(%rbp), %eax	# __A, tmp243
	movl	%eax, -1732(%rbp)	# tmp243, __H
.LBB87:
.LBB88:
.LBB89:
.LBB90:
# /usr/lib/gcc/x86_64-linux-gnu/7/include/avxintrin.h:1260:   return __extension__ (__m256i)(__v8si){ __H, __G, __F, __E,
	.loc 4 1260 0
	movl	-1760(%rbp), %eax	# __A, tmp246
	vmovd	-1756(%rbp), %xmm0	# __B, tmp247
	vpinsrd	$1, %eax, %xmm0, %xmm2	# tmp246, tmp247, tmp245
	movl	-1752(%rbp), %eax	# __C, tmp249
	vmovd	-1748(%rbp), %xmm0	# __D, tmp250
	vpinsrd	$1, %eax, %xmm0, %xmm1	# tmp249, tmp250, tmp248
	movl	-1744(%rbp), %eax	# __E, tmp252
	vmovd	-1740(%rbp), %xmm0	# __F, tmp253
	vpinsrd	$1, %eax, %xmm0, %xmm3	# tmp252, tmp253, tmp251
	movl	-1736(%rbp), %eax	# __G, tmp255
	vmovd	-1732(%rbp), %xmm0	# __H, tmp256
	vpinsrd	$1, %eax, %xmm0, %xmm0	# tmp255, tmp256, tmp254
	vpunpcklqdq	%xmm3, %xmm0, %xmm0	# tmp251, tmp254, tmp257
	vpunpcklqdq	%xmm2, %xmm1, %xmm1	# tmp245, tmp248, tmp258
	vinserti128	$0x1, %xmm1, %ymm0, %ymm0	# tmp258, tmp257, tmp244
.LBE90:
.LBE89:
.LBE88:
.LBE87:
# iops.cpp:27: 		__m256i e = _mm256_setr_epi32(1,2,1,2,1,2,1,2);
	.loc 2 27 0
	vmovdqa	%ymm0, -1520(%rbp)	# D.61878, e
.LBB91:
.LBB92:
# /usr/lib/gcc/x86_64-linux-gnu/7/include/avxintrin.h:1236:   return __extension__ (__m256i)(__v4di){ 0, 0, 0, 0 };
	.loc 4 1236 0
	vpxor	%xmm0, %xmm0, %xmm0	# D.61858
.LBE92:
.LBE91:
# iops.cpp:28: 		__m256i f = _mm256_setzero_si256();
	.loc 2 28 0
	vmovdqa	%ymm0, -1488(%rbp)	# D.61858, f
	movl	$2, -1856(%rbp)	#, __A
	movl	$1, -1852(%rbp)	#, __B
	movl	$2, -1848(%rbp)	#, __C
	movl	$1, -1844(%rbp)	#, __D
	movl	$2, -1840(%rbp)	#, __E
	movl	$1, -1836(%rbp)	#, __F
	movl	$2, -1832(%rbp)	#, __G
	movl	$1, -1828(%rbp)	#, __H
	movl	-1828(%rbp), %eax	# __H, tmp259
	movl	%eax, -1824(%rbp)	# tmp259, __A
	movl	-1832(%rbp), %eax	# __G, tmp260
	movl	%eax, -1820(%rbp)	# tmp260, __B
	movl	-1836(%rbp), %eax	# __F, tmp261
	movl	%eax, -1816(%rbp)	# tmp261, __C
	movl	-1840(%rbp), %eax	# __E, tmp262
	movl	%eax, -1812(%rbp)	# tmp262, __D
	movl	-1844(%rbp), %eax	# __D, tmp263
	movl	%eax, -1808(%rbp)	# tmp263, __E
	movl	-1848(%rbp), %eax	# __C, tmp264
	movl	%eax, -1804(%rbp)	# tmp264, __F
	movl	-1852(%rbp), %eax	# __B, tmp265
	movl	%eax, -1800(%rbp)	# tmp265, __G
	movl	-1856(%rbp), %eax	# __A, tmp266
	movl	%eax, -1796(%rbp)	# tmp266, __H
.LBB93:
.LBB94:
.LBB95:
.LBB96:
# /usr/lib/gcc/x86_64-linux-gnu/7/include/avxintrin.h:1260:   return __extension__ (__m256i)(__v8si){ __H, __G, __F, __E,
	.loc 4 1260 0
	movl	-1824(%rbp), %eax	# __A, tmp269
	vmovd	-1820(%rbp), %xmm0	# __B, tmp270
	vpinsrd	$1, %eax, %xmm0, %xmm2	# tmp269, tmp270, tmp268
	movl	-1816(%rbp), %eax	# __C, tmp272
	vmovd	-1812(%rbp), %xmm0	# __D, tmp273
	vpinsrd	$1, %eax, %xmm0, %xmm1	# tmp272, tmp273, tmp271
	movl	-1808(%rbp), %eax	# __E, tmp275
	vmovd	-1804(%rbp), %xmm0	# __F, tmp276
	vpinsrd	$1, %eax, %xmm0, %xmm3	# tmp275, tmp276, tmp274
	movl	-1800(%rbp), %eax	# __G, tmp278
	vmovd	-1796(%rbp), %xmm0	# __H, tmp279
	vpinsrd	$1, %eax, %xmm0, %xmm0	# tmp278, tmp279, tmp277
	vpunpcklqdq	%xmm3, %xmm0, %xmm0	# tmp274, tmp277, tmp280
	vpunpcklqdq	%xmm2, %xmm1, %xmm1	# tmp268, tmp271, tmp281
	vinserti128	$0x1, %xmm1, %ymm0, %ymm0	# tmp281, tmp280, tmp267
.LBE96:
.LBE95:
.LBE94:
.LBE93:
# iops.cpp:29: 		__m256i g = _mm256_setr_epi32(2,1,2,1,2,1,2,1);
	.loc 2 29 0
	vmovdqa	%ymm0, -1392(%rbp)	# D.61853, g
.LBB97:
.LBB98:
# /usr/lib/gcc/x86_64-linux-gnu/7/include/avxintrin.h:1236:   return __extension__ (__m256i)(__v4di){ 0, 0, 0, 0 };
	.loc 4 1236 0
	vpxor	%xmm0, %xmm0, %xmm0	# D.61833
.LBE98:
.LBE97:
# iops.cpp:30: 		__m256i h = _mm256_setzero_si256();
	.loc 2 30 0
	vmovdqa	%ymm0, -1360(%rbp)	# D.61833, h
# iops.cpp:35: 		num_threads = omp_get_num_threads();
	.loc 2 35 0
	call	omp_get_num_threads@PLT	#
	movl	%eax, %edx	#, _19
	movq	-1864(%rbp), %rax	# .omp_data_i, tmp282
	movl	%edx, 8(%rax)	# _19, .omp_data_i_7(D)->num_threads
.LBB99:
# iops.cpp:37: 		for(uint64_t i=0;i<n;i=i+10){
	.loc 2 37 0
	movq	$0, -1600(%rbp)	#, i
.L63:
# iops.cpp:37: 		for(uint64_t i=0;i<n;i=i+10){
	.loc 2 37 0 is_stmt 0 discriminator 3
	movq	-1600(%rbp), %rax	# i, tmp283
	cmpq	-1592(%rbp), %rax	# n, tmp283
	jb	.L42	#,
.LBE99:
# iops.cpp:89: 		cout<<"\nvalues of v1:["<<a[1]<<"]";
	.loc 2 89 0 is_stmt 1
	leaq	.LC6(%rip), %rsi	#,
	leaq	_ZSt4cout(%rip), %rdi	#,
	call	_ZStlsISt11char_traitsIcEERSt13basic_ostreamIcT_ES5_PKc@PLT	#
	movq	%rax, %rdx	#, _54
	movq	-1576(%rbp), %rax	# a, _56
	movq	%rax, %rsi	# _56,
	movq	%rdx, %rdi	# _54,
	call	_ZNSolsEx@PLT	#
	leaq	.LC7(%rip), %rsi	#,
	movq	%rax, %rdi	# _58,
	call	_ZStlsISt11char_traitsIcEERSt13basic_ostreamIcT_ES5_PKc@PLT	#
.LBE74:
# iops.cpp:21: #pragma omp parallel 
	.loc 2 21 0
	movq	-24(%rbp), %rax	# D.62046, tmp321
	xorq	%fs:40, %rax	#, tmp321
	je	.L64	#,
	jmp	.L65	#
.L42:
.LBB141:
.LBB140:
# iops.cpp:39: 			a = _mm256_add_epi32(a,b);
	.loc 2 39 0 discriminator 2
	vmovdqa	-1584(%rbp), %ymm0	# a, a.1_22
	vmovdqa	%ymm0, -112(%rbp)	# a.1_22, __A
	vmovdqa	-1456(%rbp), %ymm0	# b, tmp284
	vmovdqa	%ymm0, -80(%rbp)	# tmp284, __B
.LBB100:
.LBB101:
# /usr/lib/gcc/x86_64-linux-gnu/7/include/avx2intrin.h:121:   return (__m256i) ((__v8su)__A + (__v8su)__B);
	.file 5 "/usr/lib/gcc/x86_64-linux-gnu/7/include/avx2intrin.h"
	.loc 5 121 0 discriminator 2
	vmovdqa	-112(%rbp), %ymm1	# __A, _262
	vmovdqa	-80(%rbp), %ymm0	# __B, _263
	vpaddd	%ymm0, %ymm1, %ymm0	# _263, _262, _264
.LBE101:
.LBE100:
# iops.cpp:39: 			a = _mm256_add_epi32(a,b);
	.loc 2 39 0 discriminator 2
	vmovdqa	%ymm0, -1584(%rbp)	# D.62030, a
	vmovdqa	-1552(%rbp), %ymm0	# c, tmp285
	vmovdqa	%ymm0, -176(%rbp)	# tmp285, __A
	vmovdqa	-1424(%rbp), %ymm0	# d, tmp286
	vmovdqa	%ymm0, -144(%rbp)	# tmp286, __B
.LBB102:
.LBB103:
# /usr/lib/gcc/x86_64-linux-gnu/7/include/avx2intrin.h:121:   return (__m256i) ((__v8su)__A + (__v8su)__B);
	.loc 5 121 0 discriminator 2
	vmovdqa	-176(%rbp), %ymm1	# __A, _256
	vmovdqa	-144(%rbp), %ymm0	# __B, _257
	vpaddd	%ymm0, %ymm1, %ymm0	# _257, _256, _258
.LBE103:
.LBE102:
# iops.cpp:41: 			c = _mm256_add_epi32(c,d);
	.loc 2 41 0 discriminator 2
	vmovdqa	%ymm0, -1552(%rbp)	# D.62025, c
	vmovdqa	-1520(%rbp), %ymm0	# e, tmp287
	vmovdqa	%ymm0, -240(%rbp)	# tmp287, __A
	vmovdqa	-1488(%rbp), %ymm0	# f, tmp288
	vmovdqa	%ymm0, -208(%rbp)	# tmp288, __B
.LBB104:
.LBB105:
# /usr/lib/gcc/x86_64-linux-gnu/7/include/avx2intrin.h:121:   return (__m256i) ((__v8su)__A + (__v8su)__B);
	.loc 5 121 0 discriminator 2
	vmovdqa	-240(%rbp), %ymm1	# __A, _250
	vmovdqa	-208(%rbp), %ymm0	# __B, _251
	vpaddd	%ymm0, %ymm1, %ymm0	# _251, _250, _252
.LBE105:
.LBE104:
# iops.cpp:44: 			e = _mm256_add_epi32(e,f);
	.loc 2 44 0 discriminator 2
	vmovdqa	%ymm0, -1520(%rbp)	# D.62020, e
	vmovdqa	-1392(%rbp), %ymm0	# g, tmp289
	vmovdqa	%ymm0, -304(%rbp)	# tmp289, __A
	vmovdqa	-1360(%rbp), %ymm0	# h, tmp290
	vmovdqa	%ymm0, -272(%rbp)	# tmp290, __B
.LBB106:
.LBB107:
# /usr/lib/gcc/x86_64-linux-gnu/7/include/avx2intrin.h:121:   return (__m256i) ((__v8su)__A + (__v8su)__B);
	.loc 5 121 0 discriminator 2
	vmovdqa	-304(%rbp), %ymm1	# __A, _244
	vmovdqa	-272(%rbp), %ymm0	# __B, _245
	vpaddd	%ymm0, %ymm1, %ymm0	# _245, _244, _246
.LBE107:
.LBE106:
# iops.cpp:46: 			f = _mm256_add_epi32(g,h);
	.loc 2 46 0 discriminator 2
	vmovdqa	%ymm0, -1488(%rbp)	# D.62015, f
# iops.cpp:49: 			a = _mm256_add_epi32(a,b);
	.loc 2 49 0 discriminator 2
	vmovdqa	-1584(%rbp), %ymm0	# a, a.3_28
	vmovdqa	%ymm0, -368(%rbp)	# a.3_28, __A
	vmovdqa	-1456(%rbp), %ymm0	# b, tmp291
	vmovdqa	%ymm0, -336(%rbp)	# tmp291, __B
.LBB108:
.LBB109:
# /usr/lib/gcc/x86_64-linux-gnu/7/include/avx2intrin.h:121:   return (__m256i) ((__v8su)__A + (__v8su)__B);
	.loc 5 121 0 discriminator 2
	vmovdqa	-368(%rbp), %ymm1	# __A, _238
	vmovdqa	-336(%rbp), %ymm0	# __B, _239
	vpaddd	%ymm0, %ymm1, %ymm0	# _239, _238, _240
.LBE109:
.LBE108:
# iops.cpp:49: 			a = _mm256_add_epi32(a,b);
	.loc 2 49 0 discriminator 2
	vmovdqa	%ymm0, -1584(%rbp)	# D.62010, a
	vmovdqa	-1552(%rbp), %ymm0	# c, tmp292
	vmovdqa	%ymm0, -432(%rbp)	# tmp292, __A
	vmovdqa	-1424(%rbp), %ymm0	# d, tmp293
	vmovdqa	%ymm0, -400(%rbp)	# tmp293, __B
.LBB110:
.LBB111:
# /usr/lib/gcc/x86_64-linux-gnu/7/include/avx2intrin.h:121:   return (__m256i) ((__v8su)__A + (__v8su)__B);
	.loc 5 121 0 discriminator 2
	vmovdqa	-432(%rbp), %ymm1	# __A, _232
	vmovdqa	-400(%rbp), %ymm0	# __B, _233
	vpaddd	%ymm0, %ymm1, %ymm0	# _233, _232, _234
.LBE111:
.LBE110:
# iops.cpp:51: 			c = _mm256_add_epi32(c,d);
	.loc 2 51 0 discriminator 2
	vmovdqa	%ymm0, -1552(%rbp)	# D.62005, c
	vmovdqa	-1520(%rbp), %ymm0	# e, tmp294
	vmovdqa	%ymm0, -496(%rbp)	# tmp294, __A
	vmovdqa	-1488(%rbp), %ymm0	# f, tmp295
	vmovdqa	%ymm0, -464(%rbp)	# tmp295, __B
.LBB112:
.LBB113:
# /usr/lib/gcc/x86_64-linux-gnu/7/include/avx2intrin.h:121:   return (__m256i) ((__v8su)__A + (__v8su)__B);
	.loc 5 121 0 discriminator 2
	vmovdqa	-496(%rbp), %ymm1	# __A, _226
	vmovdqa	-464(%rbp), %ymm0	# __B, _227
	vpaddd	%ymm0, %ymm1, %ymm0	# _227, _226, _228
.LBE113:
.LBE112:
# iops.cpp:54: 			e = _mm256_add_epi32(e,f);
	.loc 2 54 0 discriminator 2
	vmovdqa	%ymm0, -1520(%rbp)	# D.62000, e
	vmovdqa	-1392(%rbp), %ymm0	# g, tmp296
	vmovdqa	%ymm0, -560(%rbp)	# tmp296, __A
	vmovdqa	-1360(%rbp), %ymm0	# h, tmp297
	vmovdqa	%ymm0, -528(%rbp)	# tmp297, __B
.LBB114:
.LBB115:
# /usr/lib/gcc/x86_64-linux-gnu/7/include/avx2intrin.h:121:   return (__m256i) ((__v8su)__A + (__v8su)__B);
	.loc 5 121 0 discriminator 2
	vmovdqa	-560(%rbp), %ymm1	# __A, _220
	vmovdqa	-528(%rbp), %ymm0	# __B, _221
	vpaddd	%ymm0, %ymm1, %ymm0	# _221, _220, _222
.LBE115:
.LBE114:
# iops.cpp:56: 			f = _mm256_add_epi32(g,h);;
	.loc 2 56 0 discriminator 2
	vmovdqa	%ymm0, -1488(%rbp)	# D.61995, f
# iops.cpp:59: 			a = _mm256_add_epi32(a,b);
	.loc 2 59 0 discriminator 2
	vmovdqa	-1584(%rbp), %ymm0	# a, a.5_34
	vmovdqa	%ymm0, -624(%rbp)	# a.5_34, __A
	vmovdqa	-1456(%rbp), %ymm0	# b, tmp298
	vmovdqa	%ymm0, -592(%rbp)	# tmp298, __B
.LBB116:
.LBB117:
# /usr/lib/gcc/x86_64-linux-gnu/7/include/avx2intrin.h:121:   return (__m256i) ((__v8su)__A + (__v8su)__B);
	.loc 5 121 0 discriminator 2
	vmovdqa	-624(%rbp), %ymm1	# __A, _214
	vmovdqa	-592(%rbp), %ymm0	# __B, _215
	vpaddd	%ymm0, %ymm1, %ymm0	# _215, _214, _216
.LBE117:
.LBE116:
# iops.cpp:59: 			a = _mm256_add_epi32(a,b);
	.loc 2 59 0 discriminator 2
	vmovdqa	%ymm0, -1584(%rbp)	# D.61990, a
	vmovdqa	-1552(%rbp), %ymm0	# c, tmp299
	vmovdqa	%ymm0, -688(%rbp)	# tmp299, __A
	vmovdqa	-1424(%rbp), %ymm0	# d, tmp300
	vmovdqa	%ymm0, -656(%rbp)	# tmp300, __B
.LBB118:
.LBB119:
# /usr/lib/gcc/x86_64-linux-gnu/7/include/avx2intrin.h:121:   return (__m256i) ((__v8su)__A + (__v8su)__B);
	.loc 5 121 0 discriminator 2
	vmovdqa	-688(%rbp), %ymm1	# __A, _208
	vmovdqa	-656(%rbp), %ymm0	# __B, _209
	vpaddd	%ymm0, %ymm1, %ymm0	# _209, _208, _210
.LBE119:
.LBE118:
# iops.cpp:61: 			c = _mm256_add_epi32(c,d);
	.loc 2 61 0 discriminator 2
	vmovdqa	%ymm0, -1552(%rbp)	# D.61985, c
	vmovdqa	-1520(%rbp), %ymm0	# e, tmp301
	vmovdqa	%ymm0, -752(%rbp)	# tmp301, __A
	vmovdqa	-1488(%rbp), %ymm0	# f, tmp302
	vmovdqa	%ymm0, -720(%rbp)	# tmp302, __B
.LBB120:
.LBB121:
# /usr/lib/gcc/x86_64-linux-gnu/7/include/avx2intrin.h:121:   return (__m256i) ((__v8su)__A + (__v8su)__B);
	.loc 5 121 0 discriminator 2
	vmovdqa	-752(%rbp), %ymm1	# __A, _202
	vmovdqa	-720(%rbp), %ymm0	# __B, _203
	vpaddd	%ymm0, %ymm1, %ymm0	# _203, _202, _204
.LBE121:
.LBE120:
# iops.cpp:64: 			e = _mm256_add_epi32(e,f);
	.loc 2 64 0 discriminator 2
	vmovdqa	%ymm0, -1520(%rbp)	# D.61980, e
	vmovdqa	-1392(%rbp), %ymm0	# g, tmp303
	vmovdqa	%ymm0, -816(%rbp)	# tmp303, __A
	vmovdqa	-1360(%rbp), %ymm0	# h, tmp304
	vmovdqa	%ymm0, -784(%rbp)	# tmp304, __B
.LBB122:
.LBB123:
# /usr/lib/gcc/x86_64-linux-gnu/7/include/avx2intrin.h:121:   return (__m256i) ((__v8su)__A + (__v8su)__B);
	.loc 5 121 0 discriminator 2
	vmovdqa	-816(%rbp), %ymm1	# __A, _196
	vmovdqa	-784(%rbp), %ymm0	# __B, _197
	vpaddd	%ymm0, %ymm1, %ymm0	# _197, _196, _198
.LBE123:
.LBE122:
# iops.cpp:66: 			f = _mm256_add_epi32(g,h);
	.loc 2 66 0 discriminator 2
	vmovdqa	%ymm0, -1488(%rbp)	# D.61975, f
# iops.cpp:69: 			a = _mm256_add_epi32(a,b);
	.loc 2 69 0 discriminator 2
	vmovdqa	-1584(%rbp), %ymm0	# a, a.7_40
	vmovdqa	%ymm0, -880(%rbp)	# a.7_40, __A
	vmovdqa	-1456(%rbp), %ymm0	# b, tmp305
	vmovdqa	%ymm0, -848(%rbp)	# tmp305, __B
.LBB124:
.LBB125:
# /usr/lib/gcc/x86_64-linux-gnu/7/include/avx2intrin.h:121:   return (__m256i) ((__v8su)__A + (__v8su)__B);
	.loc 5 121 0 discriminator 2
	vmovdqa	-880(%rbp), %ymm1	# __A, _190
	vmovdqa	-848(%rbp), %ymm0	# __B, _191
	vpaddd	%ymm0, %ymm1, %ymm0	# _191, _190, _192
.LBE125:
.LBE124:
# iops.cpp:69: 			a = _mm256_add_epi32(a,b);
	.loc 2 69 0 discriminator 2
	vmovdqa	%ymm0, -1584(%rbp)	# D.61970, a
	vmovdqa	-1552(%rbp), %ymm0	# c, tmp306
	vmovdqa	%ymm0, -944(%rbp)	# tmp306, __A
	vmovdqa	-1424(%rbp), %ymm0	# d, tmp307
	vmovdqa	%ymm0, -912(%rbp)	# tmp307, __B
.LBB126:
.LBB127:
# /usr/lib/gcc/x86_64-linux-gnu/7/include/avx2intrin.h:121:   return (__m256i) ((__v8su)__A + (__v8su)__B);
	.loc 5 121 0 discriminator 2
	vmovdqa	-944(%rbp), %ymm1	# __A, _184
	vmovdqa	-912(%rbp), %ymm0	# __B, _185
	vpaddd	%ymm0, %ymm1, %ymm0	# _185, _184, _186
.LBE127:
.LBE126:
# iops.cpp:71: 			c = _mm256_add_epi32(c,d);
	.loc 2 71 0 discriminator 2
	vmovdqa	%ymm0, -1552(%rbp)	# D.61965, c
	vmovdqa	-1520(%rbp), %ymm0	# e, tmp308
	vmovdqa	%ymm0, -1008(%rbp)	# tmp308, __A
	vmovdqa	-1488(%rbp), %ymm0	# f, tmp309
	vmovdqa	%ymm0, -976(%rbp)	# tmp309, __B
.LBB128:
.LBB129:
# /usr/lib/gcc/x86_64-linux-gnu/7/include/avx2intrin.h:121:   return (__m256i) ((__v8su)__A + (__v8su)__B);
	.loc 5 121 0 discriminator 2
	vmovdqa	-1008(%rbp), %ymm1	# __A, _178
	vmovdqa	-976(%rbp), %ymm0	# __B, _179
	vpaddd	%ymm0, %ymm1, %ymm0	# _179, _178, _180
.LBE129:
.LBE128:
# iops.cpp:74: 			e = _mm256_add_epi32(e,f);
	.loc 2 74 0 discriminator 2
	vmovdqa	%ymm0, -1520(%rbp)	# D.61960, e
	vmovdqa	-1392(%rbp), %ymm0	# g, tmp310
	vmovdqa	%ymm0, -1072(%rbp)	# tmp310, __A
	vmovdqa	-1360(%rbp), %ymm0	# h, tmp311
	vmovdqa	%ymm0, -1040(%rbp)	# tmp311, __B
.LBB130:
.LBB131:
# /usr/lib/gcc/x86_64-linux-gnu/7/include/avx2intrin.h:121:   return (__m256i) ((__v8su)__A + (__v8su)__B);
	.loc 5 121 0 discriminator 2
	vmovdqa	-1072(%rbp), %ymm1	# __A, _172
	vmovdqa	-1040(%rbp), %ymm0	# __B, _173
	vpaddd	%ymm0, %ymm1, %ymm0	# _173, _172, _174
.LBE131:
.LBE130:
# iops.cpp:76: 			f = _mm256_add_epi32(g,h);;
	.loc 2 76 0 discriminator 2
	vmovdqa	%ymm0, -1488(%rbp)	# D.61955, f
# iops.cpp:79: 			a = _mm256_add_epi32(a,b);
	.loc 2 79 0 discriminator 2
	vmovdqa	-1584(%rbp), %ymm0	# a, a.9_46
	vmovdqa	%ymm0, -1136(%rbp)	# a.9_46, __A
	vmovdqa	-1456(%rbp), %ymm0	# b, tmp312
	vmovdqa	%ymm0, -1104(%rbp)	# tmp312, __B
.LBB132:
.LBB133:
# /usr/lib/gcc/x86_64-linux-gnu/7/include/avx2intrin.h:121:   return (__m256i) ((__v8su)__A + (__v8su)__B);
	.loc 5 121 0 discriminator 2
	vmovdqa	-1136(%rbp), %ymm1	# __A, _166
	vmovdqa	-1104(%rbp), %ymm0	# __B, _167
	vpaddd	%ymm0, %ymm1, %ymm0	# _167, _166, _168
.LBE133:
.LBE132:
# iops.cpp:79: 			a = _mm256_add_epi32(a,b);
	.loc 2 79 0 discriminator 2
	vmovdqa	%ymm0, -1584(%rbp)	# D.61950, a
	vmovdqa	-1552(%rbp), %ymm0	# c, tmp313
	vmovdqa	%ymm0, -1200(%rbp)	# tmp313, __A
	vmovdqa	-1424(%rbp), %ymm0	# d, tmp314
	vmovdqa	%ymm0, -1168(%rbp)	# tmp314, __B
.LBB134:
.LBB135:
# /usr/lib/gcc/x86_64-linux-gnu/7/include/avx2intrin.h:121:   return (__m256i) ((__v8su)__A + (__v8su)__B);
	.loc 5 121 0 discriminator 2
	vmovdqa	-1200(%rbp), %ymm1	# __A, _160
	vmovdqa	-1168(%rbp), %ymm0	# __B, _161
	vpaddd	%ymm0, %ymm1, %ymm0	# _161, _160, _162
.LBE135:
.LBE134:
# iops.cpp:81: 			c = _mm256_add_epi32(c,d);
	.loc 2 81 0 discriminator 2
	vmovdqa	%ymm0, -1552(%rbp)	# D.61945, c
	vmovdqa	-1520(%rbp), %ymm0	# e, tmp315
	vmovdqa	%ymm0, -1264(%rbp)	# tmp315, __A
	vmovdqa	-1488(%rbp), %ymm0	# f, tmp316
	vmovdqa	%ymm0, -1232(%rbp)	# tmp316, __B
.LBB136:
.LBB137:
# /usr/lib/gcc/x86_64-linux-gnu/7/include/avx2intrin.h:121:   return (__m256i) ((__v8su)__A + (__v8su)__B);
	.loc 5 121 0 discriminator 2
	vmovdqa	-1264(%rbp), %ymm1	# __A, _154
	vmovdqa	-1232(%rbp), %ymm0	# __B, _155
	vpaddd	%ymm0, %ymm1, %ymm0	# _155, _154, _156
.LBE137:
.LBE136:
# iops.cpp:84: 			e = _mm256_add_epi32(e,f);
	.loc 2 84 0 discriminator 2
	vmovdqa	%ymm0, -1520(%rbp)	# D.61940, e
	vmovdqa	-1392(%rbp), %ymm0	# g, tmp317
	vmovdqa	%ymm0, -1328(%rbp)	# tmp317, __A
	vmovdqa	-1360(%rbp), %ymm0	# h, tmp318
	vmovdqa	%ymm0, -1296(%rbp)	# tmp318, __B
.LBB138:
.LBB139:
# /usr/lib/gcc/x86_64-linux-gnu/7/include/avx2intrin.h:121:   return (__m256i) ((__v8su)__A + (__v8su)__B);
	.loc 5 121 0 discriminator 2
	vmovdqa	-1328(%rbp), %ymm1	# __A, _148
	vmovdqa	-1296(%rbp), %ymm0	# __B, _149
	vpaddd	%ymm0, %ymm1, %ymm0	# _149, _148, _150
.LBE139:
.LBE138:
# iops.cpp:86: 			f = _mm256_add_epi32(g,h);
	.loc 2 86 0 discriminator 2
	vmovdqa	%ymm0, -1488(%rbp)	# D.61935, f
# iops.cpp:37: 		for(uint64_t i=0;i<n;i=i+10){
	.loc 2 37 0 discriminator 2
	addq	$10, -1600(%rbp)	#, i
	jmp	.L63	#
.L65:
.LBE140:
.LBE141:
# iops.cpp:21: #pragma omp parallel 
	.loc 2 21 0
	call	__stack_chk_fail@PLT	#
.L64:
	addq	$1864, %rsp	#,
	popq	%r10	#
	.cfi_def_cfa 10, 0
	popq	%rbp	#
	leaq	-8(%r10), %rsp	#,
	.cfi_def_cfa 7, 8
	ret
	.cfi_endproc
.LFE5707:
	.globl	__gxx_personality_v0
	.section	.gcc_except_table,"a",@progbits
.LLSDA5707:
	.byte	0xff
	.byte	0xff
	.byte	0x1
	.uleb128 .LLSDACSE5707-.LLSDACSB5707
.LLSDACSB5707:
.LLSDACSE5707:
	.text
	.size	main._omp_fn.0, .-main._omp_fn.0
	.section	.rodata
	.align 8
.LC0:
	.long	0
	.long	1104006501
	.text
.Letext0:
	.file 6 "/usr/include/c++/7/cstdlib"
	.file 7 "/usr/include/c++/7/cwchar"
	.file 8 "/usr/include/c++/7/new"
	.file 9 "/usr/include/c++/7/bits/exception_ptr.h"
	.file 10 "/usr/include/c++/7/type_traits"
	.file 11 "/usr/include/x86_64-linux-gnu/c++/7/bits/c++config.h"
	.file 12 "/usr/include/c++/7/bits/cpp_type_traits.h"
	.file 13 "/usr/include/c++/7/bits/stl_pair.h"
	.file 14 "/usr/include/c++/7/debug/debug.h"
	.file 15 "/usr/include/c++/7/bits/char_traits.h"
	.file 16 "/usr/include/c++/7/cstdint"
	.file 17 "/usr/include/c++/7/clocale"
	.file 18 "/usr/include/c++/7/cstdio"
	.file 19 "/usr/include/c++/7/system_error"
	.file 20 "/usr/include/c++/7/bits/ios_base.h"
	.file 21 "/usr/include/c++/7/cwctype"
	.file 22 "/usr/include/c++/7/iosfwd"
	.file 23 "/usr/include/c++/7/ctime"
	.file 24 "<built-in>"
	.file 25 "/usr/include/c++/7/ratio"
	.file 26 "/usr/include/c++/7/bits/predefined_ops.h"
	.file 27 "/usr/include/c++/7/ext/new_allocator.h"
	.file 28 "/usr/include/c++/7/ext/numeric_traits.h"
	.file 29 "/usr/lib/gcc/x86_64-linux-gnu/7/include/stddef.h"
	.file 30 "/usr/include/stdlib.h"
	.file 31 "/usr/include/x86_64-linux-gnu/bits/types.h"
	.file 32 "/usr/include/x86_64-linux-gnu/bits/types/clock_t.h"
	.file 33 "/usr/include/x86_64-linux-gnu/bits/types/time_t.h"
	.file 34 "/usr/include/x86_64-linux-gnu/bits/stdint-intn.h"
	.file 35 "/usr/include/c++/7/stdlib.h"
	.file 36 "/usr/include/x86_64-linux-gnu/bits/types/wint_t.h"
	.file 37 "/usr/include/x86_64-linux-gnu/bits/types/__mbstate_t.h"
	.file 38 "/usr/include/x86_64-linux-gnu/bits/types/mbstate_t.h"
	.file 39 "/usr/include/x86_64-linux-gnu/bits/types/__FILE.h"
	.file 40 "/usr/include/x86_64-linux-gnu/bits/libio.h"
	.file 41 "/usr/include/x86_64-linux-gnu/bits/types/FILE.h"
	.file 42 "/usr/include/wchar.h"
	.file 43 "/usr/include/x86_64-linux-gnu/bits/types/struct_tm.h"
	.file 44 "/usr/include/x86_64-linux-gnu/bits/stdint-uintn.h"
	.file 45 "/usr/include/stdint.h"
	.file 46 "/usr/include/locale.h"
	.file 47 "/usr/include/time.h"
	.file 48 "/usr/include/x86_64-linux-gnu/c++/7/bits/atomic_word.h"
	.file 49 "/usr/include/x86_64-linux-gnu/bits/_G_config.h"
	.file 50 "/usr/include/stdio.h"
	.file 51 "/usr/include/x86_64-linux-gnu/bits/sys_errlist.h"
	.file 52 "/usr/include/errno.h"
	.file 53 "/usr/include/x86_64-linux-gnu/bits/wctype-wchar.h"
	.file 54 "/usr/include/wctype.h"
	.section	.data.rel.local.DW.ref.__gxx_personality_v0,"awG",@progbits,DW.ref.__gxx_personality_v0,comdat
	.align 8
	.type	DW.ref.__gxx_personality_v0, @object
	.size	DW.ref.__gxx_personality_v0, 8
DW.ref.__gxx_personality_v0:
	.quad	__gxx_personality_v0
	.hidden	__dso_handle
	.ident	"GCC: (Ubuntu 7.4.0-1ubuntu1~18.04.1) 7.4.0"
	.section	.note.GNU-stack,"",@progbits
